BL51 BANKED LINKER/LOCATER V6.22                                                        06/07/2022  21:33:08  PAGE 1


BL51 BANKED LINKER/LOCATER V6.22, INVOKED BY:
D:\KEIL_V5\C51\BIN\BL51.EXE .\Objects\main.obj, .\Objects\System.obj, .\Objects\lcd12864.obj, .\Objects\key_4x4.obj TO .
>> \Objects\TEST PRINT (.\Listings\TEST.m51) RAMSIZE (256)


MEMORY MODEL: LARGE


INPUT MODULES INCLUDED:
  .\Objects\main.obj (MAIN)
  .\Objects\System.obj (SYSTEM)
  .\Objects\lcd12864.obj (LCD12864)
  .\Objects\key_4x4.obj (KEY_4X4)
  D:\KEIL_V5\C51\LIB\C51L.LIB (?C_STARTUP)
  D:\KEIL_V5\C51\LIB\C51L.LIB (?C?COPY)
  D:\KEIL_V5\C51\LIB\C51L.LIB (?C?CLDPTR)
  D:\KEIL_V5\C51\LIB\C51L.LIB (?C?ILDIX)
  D:\KEIL_V5\C51\LIB\C51L.LIB (?C_INIT)


LINK MAP OF MODULE:  .\Objects\TEST (MAIN)


            TYPE    BASE      LENGTH    RELOCATION   SEGMENT NAME
            -----------------------------------------------------

            * * * * * * *   D A T A   M E M O R Y   * * * * * * *
            REG     0000H     0008H     ABSOLUTE     "REG BANK 0"
            IDATA   0008H     0001H     UNIT         ?STACK

            * * * * * * *  X D A T A   M E M O R Y  * * * * * * *
            XDATA   0000H     0BD0H     UNIT         ?XD?LCD12864
            XDATA   0BD0H     0010H     UNIT         ?XD?KEY_4X4
            XDATA   0BE0H     0010H     UNIT         _XDATA_GROUP_
            XDATA   0BF0H     0003H     UNIT         ?XD?_SETLCD?LCD12864
            XDATA   0BF3H     0001H     UNIT         ?XD?LCD_ROL?LCD12864

            * * * * * * *   C O D E   M E M O R Y   * * * * * * *
            CODE    0000H     0003H     ABSOLUTE     
            CODE    0003H     0BF0H     UNIT         ?C_INITSEG
            CODE    0BF3H     0125H     UNIT         ?C?LIB_CODE
            CODE    0D18H     0120H     UNIT         ?PR?GET_KEYVALUE?KEY_4X4
            CODE    0E38H     00CDH     UNIT         ?PR?_DISPLAY?LCD12864
            CODE    0F05H     009EH     UNIT         ?PR?_DISPLAYEN?LCD12864
            CODE    0FA3H     008CH     UNIT         ?PR?_SHOW_NUM?LCD12864
            CODE    102FH     008CH     UNIT         ?C_C51STARTUP
            CODE    10BBH     0067H     UNIT         ?PR?_CLEARSCREEN?LCD12864
            CODE    1122H     0061H     UNIT         ?PR?LCD12864_SOFTWARE_INIT?LCD12864
            CODE    1183H     0058H     UNIT         ?PR?SYSTEM_INIT?SYSTEM
            CODE    11DBH     004FH     UNIT         ?PR?_LCD12864_WRITEBYTE?LCD12864
            CODE    122AH     0041H     UNIT         ?PR?_SENDCOMMANDTOLCD?LCD12864
            CODE    126BH     003FH     UNIT         ?PR?_SETLCD?LCD12864
            CODE    12AAH     003FH     UNIT         ?PR?LCD_ROL?LCD12864
            CODE    12E9H     003DH     UNIT         ?PR?MAIN?MAIN
            CODE    1326H     0034H     UNIT         ?PR?_SELECTSCREEN?LCD12864
            CODE    135AH     0029H     UNIT         ?PR?_SHOW_HZ?LCD12864
            CODE    1383H     001EH     UNIT         ?PR?_DELAY_MS?SYSTEM
            CODE    13A1H     0015H     UNIT         ?PR?_DELAY_US?SYSTEM
BL51 BANKED LINKER/LOCATER V6.22                                                      06/07/2022  21:33:08  PAGE 2


            CODE    13B6H     0013H     UNIT         ?PR?LCD_ALL_DIR_OUT?LCD12864
            CODE    13C9H     000BH     UNIT         ?CO?MAIN
            CODE    13D4H     0009H     UNIT         ?PR?_SETCOLUMN?LCD12864
            CODE    13DDH     0007H     UNIT         ?PR?_SETLINE?LCD12864
            CODE    13E4H     0007H     UNIT         ?PR?_SETSTARTLINE?LCD12864
            CODE    13EBH     0007H     UNIT         ?PR?_SETONOFF?LCD12864



OVERLAY MAP OF MODULE:   .\Objects\TEST (MAIN)


SEGMENT                                       XDATA_GROUP
  +--> CALLED SEGMENT                       START    LENGTH
-----------------------------------------------------------
?C_C51STARTUP                               -----    -----
  +--> ?PR?MAIN?MAIN
  +--> ?C_INITSEG

?PR?MAIN?MAIN                               0BE0H    0002H
  +--> ?CO?MAIN
  +--> ?PR?SYSTEM_INIT?SYSTEM
  +--> ?PR?LCD12864_SOFTWARE_INIT?LCD12864
  +--> ?PR?_SHOW_NUM?LCD12864
  +--> ?PR?GET_KEYVALUE?KEY_4X4

?PR?SYSTEM_INIT?SYSTEM                      -----    -----
  +--> ?PR?_DELAY_MS?SYSTEM

?PR?LCD12864_SOFTWARE_INIT?LCD12864         -----    -----
  +--> ?PR?LCD_ALL_DIR_OUT?LCD12864
  +--> ?PR?_DELAY_US?SYSTEM
  +--> ?PR?_SELECTSCREEN?LCD12864
  +--> ?PR?_SETONOFF?LCD12864
  +--> ?PR?_CLEARSCREEN?LCD12864
  +--> ?PR?_SETSTARTLINE?LCD12864

?PR?_SELECTSCREEN?LCD12864                  -----    -----
  +--> ?PR?_DELAY_US?SYSTEM

?PR?_SETONOFF?LCD12864                      -----    -----
  +--> ?PR?_SENDCOMMANDTOLCD?LCD12864

?PR?_SENDCOMMANDTOLCD?LCD12864              0BEFH    0001H
  +--> ?PR?_DELAY_US?SYSTEM

?PR?_CLEARSCREEN?LCD12864                   0BE2H    0001H
  +--> ?PR?_SHOW_HZ?LCD12864

?PR?_SHOW_HZ?LCD12864                       -----    -----
  +--> ?PR?_DISPLAY?LCD12864

?PR?_DISPLAY?LCD12864                       0BE3H    0006H
  +--> ?PR?_SETONOFF?LCD12864
  +--> ?PR?_SELECTSCREEN?LCD12864
  +--> ?PR?_SETLINE?LCD12864
  +--> ?PR?_SETCOLUMN?LCD12864
BL51 BANKED LINKER/LOCATER V6.22                                                      06/07/2022  21:33:08  PAGE 3


  +--> ?PR?_LCD12864_WRITEBYTE?LCD12864

?PR?_SETLINE?LCD12864                       -----    -----
  +--> ?PR?_SENDCOMMANDTOLCD?LCD12864

?PR?_SETCOLUMN?LCD12864                     -----    -----
  +--> ?PR?_SENDCOMMANDTOLCD?LCD12864

?PR?_LCD12864_WRITEBYTE?LCD12864            0BEFH    0001H
  +--> ?PR?_DELAY_US?SYSTEM

?PR?_SETSTARTLINE?LCD12864                  -----    -----
  +--> ?PR?_SENDCOMMANDTOLCD?LCD12864

?PR?_SHOW_NUM?LCD12864                      0BE2H    0007H
  +--> ?PR?_DISPLAYEN?LCD12864

?PR?_DISPLAYEN?LCD12864                     0BE9H    0006H
  +--> ?PR?_SELECTSCREEN?LCD12864
  +--> ?PR?_SETLINE?LCD12864
  +--> ?PR?_SETCOLUMN?LCD12864
  +--> ?PR?_LCD12864_WRITEBYTE?LCD12864

?PR?GET_KEYVALUE?KEY_4X4                    0BE2H    0006H
  +--> ?PR?_DELAY_MS?SYSTEM



SYMBOL TABLE OF MODULE:  .\Objects\TEST (MAIN)

  VALUE           TYPE          NAME
  ----------------------------------

  -------         MODULE        MAIN
  C:0000H         SYMBOL        _ICE_DUMMY_
  D:0080H         PUBLIC        P0
  D:0090H         PUBLIC        P1
  D:00A0H         PUBLIC        P2
  D:00B0H         PUBLIC        P3
  D:00C0H         PUBLIC        P4
  D:00C8H         PUBLIC        P5
  D:00E8H         PUBLIC        P6
  D:00F8H         PUBLIC        P7
  D:00A8H         PUBLIC        IE
  D:00B8H         PUBLIC        IP
  D:00D8H         PUBLIC        CCON
  C:12E9H         PUBLIC        main
  D:0098H         PUBLIC        SCON
  D:0088H         PUBLIC        TCON
  C:13D2H         SYMBOL        _?ix1000
  D:00D0H         PUBLIC        PSW
  -------         PROC          MAIN
  -------         DO            
  X:0BE0H         SYMBOL        num
  -------         ENDDO         
  C:12E9H         LINE#         29
  C:12E9H         LINE#         30
BL51 BANKED LINKER/LOCATER V6.22                                                      06/07/2022  21:33:08  PAGE 4


  C:12E9H         LINE#         31
  C:12FCH         LINE#         32
  C:12FFH         LINE#         33
  C:1302H         LINE#         34
  C:130FH         LINE#         35
  C:130FH         LINE#         36
  C:130FH         LINE#         37
  C:1317H         LINE#         38
  C:1324H         LINE#         39
  -------         ENDPROC       MAIN
  -------         ENDMOD        MAIN

  -------         MODULE        SYSTEM
  C:0000H         SYMBOL        _ICE_DUMMY_
  D:0092H         PUBLIC        P1M0
  D:0093H         PUBLIC        P0M1
  C:1183H         PUBLIC        System_Init
  D:0096H         PUBLIC        P2M0
  D:0091H         PUBLIC        P1M1
  D:0080H         PUBLIC        P0
  D:00B2H         PUBLIC        P3M0
  D:0095H         PUBLIC        P2M1
  D:0090H         PUBLIC        P1
  D:00B4H         PUBLIC        P4M0
  D:00B1H         PUBLIC        P3M1
  D:00A0H         PUBLIC        P2
  D:00CAH         PUBLIC        P5M0
  D:00B3H         PUBLIC        P4M1
  D:00B0H         PUBLIC        P3
  D:00CCH         PUBLIC        P6M0
  D:00C9H         PUBLIC        P5M1
  D:00C0H         PUBLIC        P4
  D:00E2H         PUBLIC        P7M0
  D:00CBH         PUBLIC        P6M1
  D:00C8H         PUBLIC        P5
  D:00E1H         PUBLIC        P7M1
  D:00E8H         PUBLIC        P6
  D:00F8H         PUBLIC        P7
  D:00BAH         PUBLIC        P_SW2
  D:00A8H         PUBLIC        IE
  D:00B8H         PUBLIC        IP
  D:00D8H         PUBLIC        CCON
  C:1383H         PUBLIC        _Delay_ms
  D:0098H         PUBLIC        SCON
  D:0088H         PUBLIC        TCON
  C:13A1H         PUBLIC        _Delay_us
  D:00FFH         PUBLIC        RSTCFG
  D:00D0H         PUBLIC        PSW
  D:0094H         PUBLIC        P0M0
  -------         PROC          _DELAY_MS
  D:0006H         SYMBOL        ms
  -------         DO            
  D:0004H         SYMBOL        i
  -------         ENDDO         
  C:1383H         LINE#         14
  C:1383H         LINE#         15
  C:1383H         LINE#         17
BL51 BANKED LINKER/LOCATER V6.22                                                      06/07/2022  21:33:08  PAGE 5


  C:138DH         LINE#         18
  C:138DH         LINE#         19
  C:13A0H         LINE#         20
  C:13A0H         LINE#         21
  -------         ENDPROC       _DELAY_MS
  -------         PROC          _DELAY_US
  D:0006H         SYMBOL        us
  -------         DO            
  D:0005H         SYMBOL        i
  -------         ENDDO         
  C:13A1H         LINE#         36
  C:13A1H         LINE#         37
  C:13A1H         LINE#         39
  C:13ABH         LINE#         40
  C:13ABH         LINE#         41
  C:13ACH         LINE#         42
  C:13ADH         LINE#         43
  C:13AFH         LINE#         44
  C:13B5H         LINE#         46
  -------         ENDPROC       _DELAY_US
  -------         PROC          SYSTEM_INIT
  C:1183H         LINE#         56
  C:1183H         LINE#         57
  C:1183H         LINE#         58
  C:118AH         LINE#         59
  C:118DH         LINE#         60
  C:1194H         LINE#         61
  C:119BH         LINE#         62
  C:11A1H         LINE#         63
  C:11A5H         LINE#         64
  C:11A8H         LINE#         67
  C:11ABH         LINE#         71
  C:11B0H         LINE#         73
  C:11B5H         LINE#         75
  C:11BAH         LINE#         77
  C:11BFH         LINE#         79
  C:11C4H         LINE#         81
  C:11C9H         LINE#         83
  C:11CEH         LINE#         87
  C:11D4H         LINE#         89
  C:11DAH         LINE#         90
  -------         ENDPROC       SYSTEM_INIT
  -------         ENDMOD        SYSTEM

  -------         MODULE        LCD12864
  C:0000H         SYMBOL        _ICE_DUMMY_
  D:0093H         PUBLIC        P0M1
  D:0096H         PUBLIC        P2M0
  D:0080H         PUBLIC        P0
  D:0095H         PUBLIC        P2M1
  D:0090H         PUBLIC        P1
  C:126BH         PUBLIC        _SetLCD
  D:00A0H         PUBLIC        P2
  C:1122H         PUBLIC        LCD12864_Software_Init
  D:00B0H         PUBLIC        P3
  D:00C0H         PUBLIC        P4
  D:00C8H         PUBLIC        P5
BL51 BANKED LINKER/LOCATER V6.22                                                      06/07/2022  21:33:08  PAGE 6


  D:00E8H         PUBLIC        P6
  D:00F8H         PUBLIC        P7
  C:13EBH         PUBLIC        _SetOnOff
  D:00A8H         PUBLIC        IE
  X:0000H         PUBLIC        ascll
  D:00B8H         PUBLIC        IP
  C:13D4H         PUBLIC        _SetColumn
  D:00D8H         PUBLIC        CCON
  C:13B6H         PUBLIC        LCD_ALL_DIR_OUT
  X:0800H         PUBLIC        Ezk
  X:0900H         PUBLIC        Hzk
  C:0F05H         PUBLIC        _Displayen
  D:0098H         PUBLIC        SCON
  C:0FA3H         PUBLIC        _Show_Num
  D:0088H         PUBLIC        TCON
  C:13DDH         PUBLIC        _SetLine
  C:1361H         PUBLIC        _Show_Hz
  C:1326H         PUBLIC        _SelectScreen
  C:13E4H         PUBLIC        _SetStartLine
  C:10BBH         PUBLIC        _ClearScreen
  C:0E38H         PUBLIC        _Display
  C:11DFH         PUBLIC        _LCD12864_WriteByte
  C:12AAH         PUBLIC        lcd_rol
  C:122AH         PUBLIC        _SendCommandToLCD
  D:00D0H         PUBLIC        PSW
  D:0094H         PUBLIC        P0M0
  -------         PROC          _SENDCOMMANDTOLCD
  X:0BEFH         SYMBOL        com
  C:122AH         LINE#         11
  C:122FH         LINE#         12
  C:122FH         LINE#         13
  C:1236H         LINE#         14
  C:1239H         LINE#         15
  C:1240H         LINE#         16
  C:1243H         LINE#         17
  C:1246H         LINE#         18
  C:124CH         LINE#         19
  C:1253H         LINE#         20
  C:1256H         LINE#         21
  C:125DH         LINE#         22
  C:1260H         LINE#         23
  C:1267H         LINE#         24
  C:126AH         LINE#         25
  -------         ENDPROC       _SENDCOMMANDTOLCD
  -------         PROC          _SETLCD
  X:0BF0H         SYMBOL        page
  X:0BF1H         SYMBOL        startline
  X:0BF2H         SYMBOL        column
  C:126BH         LINE#         33
  C:1276H         LINE#         34
  C:1276H         LINE#         35
  C:127DH         LINE#         36
  C:1285H         LINE#         37
  C:128CH         LINE#         38
  C:1294H         LINE#         39
  C:129BH         LINE#         40
  C:12A3H         LINE#         41
BL51 BANKED LINKER/LOCATER V6.22                                                      06/07/2022  21:33:08  PAGE 7


  -------         ENDPROC       _SETLCD
  -------         PROC          _SETLINE
  D:0007H         SYMBOL        page
  C:13DDH         LINE#         44
  C:13DDH         LINE#         45
  C:13DDH         LINE#         46
  C:13E1H         LINE#         47
  -------         ENDPROC       _SETLINE
  -------         PROC          _SETSTARTLINE
  D:0007H         SYMBOL        startline
  C:13E4H         LINE#         51
  C:13E4H         LINE#         52
  C:13E4H         LINE#         53
  C:13E8H         LINE#         54
  -------         ENDPROC       _SETSTARTLINE
  -------         PROC          _SETCOLUMN
  D:0007H         SYMBOL        column
  C:13D4H         LINE#         58
  C:13D4H         LINE#         59
  C:13D4H         LINE#         60
  C:13D7H         LINE#         61
  C:13DAH         LINE#         62
  -------         ENDPROC       _SETCOLUMN
  -------         PROC          _SETONOFF
  D:0007H         SYMBOL        onoff
  C:13EBH         LINE#         67
  C:13EBH         LINE#         68
  C:13EBH         LINE#         69
  C:13EFH         LINE#         70
  -------         ENDPROC       _SETONOFF
  C:11DBH         SYMBOL        L?0053
  -------         PROC          L?0052
  -------         ENDPROC       L?0052
  C:11DBH         SYMBOL        L?0053
  -------         PROC          _LCD12864_WRITEBYTE
  X:0BEFH         SYMBOL        dat
  C:11DFH         LINE#         79
  C:11E4H         LINE#         80
  C:11E4H         LINE#         81
  C:11EBH         LINE#         82
  C:11EEH         LINE#         83
  C:11F5H         LINE#         84
  C:11F8H         LINE#         85
  C:11FFH         LINE#         86
  C:1202H         LINE#         87
  C:1205H         LINE#         88
  C:120BH         LINE#         89
  C:1212H         LINE#         90
  C:1215H         LINE#         91
  C:121CH         LINE#         92
  C:121FH         LINE#         93
  C:1226H         LINE#         94
  C:1229H         LINE#         95
  -------         ENDPROC       _LCD12864_WRITEBYTE
  -------         PROC          _SELECTSCREEN
  D:0007H         SYMBOL        screen
  C:1326H         LINE#         105
BL51 BANKED LINKER/LOCATER V6.22                                                      06/07/2022  21:33:08  PAGE 8


  C:1326H         LINE#         106
  C:1326H         LINE#         107
  C:1331H         LINE#         108
  C:1331H         LINE#         109
  C:1334H         LINE#         110
  C:1334H         LINE#         111
  C:1334H         LINE#         112
  C:1334H         LINE#         113
  C:1336H         LINE#         114
  C:1339H         LINE#         115
  C:1340H         LINE#         116
  C:1343H         LINE#         117
  C:1343H         LINE#         118
  C:1345H         LINE#         119
  C:1348H         LINE#         120
  C:134FH         LINE#         121
  C:1352H         LINE#         122
  C:1359H         LINE#         123
  C:1359H         LINE#         124
  C:1359H         LINE#         125
  C:1359H         LINE#         126
  -------         ENDPROC       _SELECTSCREEN
  -------         PROC          _CLEARSCREEN
  X:0BE2H         SYMBOL        screen
  C:10BBH         LINE#         134
  C:10C0H         LINE#         135
  C:10C0H         LINE#         136
  C:10CCH         LINE#         137
  C:10CCH         LINE#         138
  C:10D3H         LINE#         139
  C:10D8H         LINE#         140
  C:10DDH         LINE#         141
  C:10E9H         LINE#         142
  C:10F5H         LINE#         143
  C:1101H         LINE#         144
  C:110DH         LINE#         145
  C:1119H         LINE#         146
  C:1121H         LINE#         147
  -------         ENDPROC       _CLEARSCREEN
  -------         PROC          LCD_ROL
  -------         DO            
  X:0BF3H         SYMBOL        i
  -------         ENDDO         
  C:12AAH         LINE#         155
  C:12AAH         LINE#         156
  C:12AAH         LINE#         158
  C:12B9H         LINE#         159
  C:12B9H         LINE#         160
  C:12BCH         LINE#         161
  C:12C3H         LINE#         162
  C:12C6H         LINE#         163
  C:12C9H         LINE#         164
  C:12D6H         LINE#         165
  C:12D9H         LINE#         166
  C:12E0H         LINE#         167
  C:12E8H         LINE#         168
  -------         ENDPROC       LCD_ROL
BL51 BANKED LINKER/LOCATER V6.22                                                      06/07/2022  21:33:08  PAGE 9


  -------         PROC          LCD12864_SOFTWARE_INIT
  C:1122H         LINE#         176
  C:1122H         LINE#         177
  C:1122H         LINE#         178
  C:1125H         LINE#         179
  C:112CH         LINE#         180
  C:1131H         LINE#         181
  C:1136H         LINE#         182
  C:113DH         LINE#         183
  C:1142H         LINE#         184
  C:1147H         LINE#         185
  C:114EH         LINE#         186
  C:1153H         LINE#         187
  C:1158H         LINE#         188
  C:115FH         LINE#         189
  C:1164H         LINE#         190
  C:116BH         LINE#         191
  C:1170H         LINE#         192
  C:1177H         LINE#         193
  C:117CH         LINE#         194
  -------         ENDPROC       LCD12864_SOFTWARE_INIT
  -------         PROC          L?0051
  -------         ENDPROC       L?0051
  -------         PROC          _SHOW_HZ
  D:0006H         SYMBOL        x
  D:0005H         SYMBOL        y
  D:0004H         SYMBOL        hz
  -------         DO            
  D:0007H         SYMBOL        l_r
  -------         ENDDO         
  C:1361H         LINE#         203
  C:1365H         LINE#         204
  C:1365H         LINE#         205
  C:1367H         LINE#         206
  C:136DH         LINE#         207
  C:1370H         LINE#         209
  C:1372H         LINE#         210
  -------         ENDPROC       _SHOW_HZ
  -------         PROC          _SHOW_NUM
  X:0BE2H         SYMBOL        x
  X:0BE3H         SYMBOL        y
  X:0BE4H         SYMBOL        str
  -------         DO            
  X:0BE7H         SYMBOL        l_r
  X:0BE8H         SYMBOL        i
  -------         ENDDO         
  C:0FA3H         LINE#         219
  C:0FB4H         LINE#         220
  C:0FB4H         LINE#         221
  C:0FB9H         LINE#         222
  C:0FC9H         LINE#         223
  C:0FC9H         LINE#         224
  C:0FD2H         LINE#         225
  C:0FDBH         LINE#         226
  C:0FEDH         LINE#         227
  C:0FF0H         LINE#         228
  C:1026H         LINE#         229
BL51 BANKED LINKER/LOCATER V6.22                                                      06/07/2022  21:33:08  PAGE 10


  C:102CH         LINE#         230
  C:102EH         LINE#         231
  -------         ENDPROC       _SHOW_NUM
  -------         PROC          _DISPLAY
  X:0BE3H         SYMBOL        ss
  X:0BE4H         SYMBOL        page
  X:0BE5H         SYMBOL        column
  X:0BE6H         SYMBOL        number
  -------         DO            
  X:0BE7H         SYMBOL        i
  -------         ENDDO         
  C:0E38H         LINE#         239
  C:0E43H         LINE#         240
  C:0E43H         LINE#         242
  C:0E48H         LINE#         243
  C:0E50H         LINE#         244
  C:0E57H         LINE#         245
  C:0E5FH         LINE#         246
  C:0E67H         LINE#         247
  C:0E80H         LINE#         248
  C:0E80H         LINE#         249
  C:0E9DH         LINE#         250
  C:0EADH         LINE#         251
  C:0EB6H         LINE#         252
  C:0EBEH         LINE#         253
  C:0ED7H         LINE#         254
  C:0ED7H         LINE#         255
  C:0EF4H         LINE#         256
  C:0F04H         LINE#         257
  -------         ENDPROC       _DISPLAY
  -------         PROC          _DISPLAYEN
  D:0007H         SYMBOL        ss
  X:0BEAH         SYMBOL        page
  X:0BEBH         SYMBOL        column
  X:0BECH         SYMBOL        num
  -------         DO            
  X:0BEDH         SYMBOL        i
  X:0BEEH         SYMBOL        number
  -------         ENDDO         
  C:0F05H         LINE#         265
  C:0F0DH         LINE#         266
  C:0F0DH         LINE#         268
  C:0F13H         LINE#         269
  C:0F16H         LINE#         270
  C:0F1DH         LINE#         271
  C:0F25H         LINE#         272
  C:0F2DH         LINE#         273
  C:0F3CH         LINE#         274
  C:0F3CH         LINE#         275
  C:0F57H         LINE#         276
  C:0F5FH         LINE#         277
  C:0F68H         LINE#         278
  C:0F70H         LINE#         279
  C:0F7FH         LINE#         280
  C:0F7FH         LINE#         281
  C:0F9AH         LINE#         282
  C:0FA2H         LINE#         283
BL51 BANKED LINKER/LOCATER V6.22                                                      06/07/2022  21:33:08  PAGE 11


  -------         ENDPROC       _DISPLAYEN
  -------         PROC          LCD_ALL_DIR_OUT
  C:13B6H         LINE#         291
  C:13B6H         LINE#         292
  C:13B6H         LINE#         293
  C:13BCH         LINE#         294
  C:13C2H         LINE#         295
  C:13C5H         LINE#         296
  C:13C8H         LINE#         297
  -------         ENDPROC       LCD_ALL_DIR_OUT
  -------         ENDMOD        LCD12864

  -------         MODULE        KEY_4X4
  C:0000H         SYMBOL        _ICE_DUMMY_
  D:0080H         PUBLIC        P0
  D:0090H         PUBLIC        P1
  D:00A0H         PUBLIC        P2
  D:00B0H         PUBLIC        P3
  D:00CCH         PUBLIC        P6M0
  D:00C0H         PUBLIC        P4
  D:00CBH         PUBLIC        P6M1
  D:00C8H         PUBLIC        P5
  D:00E8H         PUBLIC        P6
  D:00F8H         PUBLIC        P7
  D:00A8H         PUBLIC        IE
  D:00B8H         PUBLIC        IP
  X:0BD0H         PUBLIC        Key_Tab
  D:00D8H         PUBLIC        CCON
  C:0D18H         PUBLIC        Get_KeyValue
  D:0098H         PUBLIC        SCON
  D:0088H         PUBLIC        TCON
  D:00D0H         PUBLIC        PSW
  -------         PROC          GET_KEYVALUE
  -------         DO            
  X:0BE2H         SYMBOL        i
  X:0BE3H         SYMBOL        j
  X:0BE4H         SYMBOL        temp1
  X:0BE6H         SYMBOL        temp2
  -------         ENDDO         
  C:0D18H         LINE#         16
  C:0D18H         LINE#         17
  C:0D18H         LINE#         19
  C:0D20H         LINE#         22
  C:0D26H         LINE#         23
  C:0D2CH         LINE#         24
  C:0D2FH         LINE#         25
  C:0D3AH         LINE#         26
  C:0D3AH         LINE#         27
  C:0D41H         LINE#         28
  C:0D4CH         LINE#         29
  C:0D4CH         LINE#         30
  C:0D59H         LINE#         31
  C:0D5FH         LINE#         32
  C:0D65H         LINE#         33
  C:0D68H         LINE#         34
  C:0D74H         LINE#         35
  C:0D74H         LINE#         36
BL51 BANKED LINKER/LOCATER V6.22                                                      06/07/2022  21:33:08  PAGE 12


  C:0D7BH         LINE#         37
  C:0D84H         LINE#         38
  C:0D92H         LINE#         39
  C:0D9BH         LINE#         40
  C:0DB6H         LINE#         41
  C:0DB6H         LINE#         42
  C:0DB6H         LINE#         43
  C:0DBBH         LINE#         44
  C:0DBDH         LINE#         45
  C:0DBDH         LINE#         46
  C:0DC3H         LINE#         47
  C:0DC5H         LINE#         48
  C:0DC5H         LINE#         49
  C:0DCBH         LINE#         50
  C:0DCDH         LINE#         51
  C:0DCDH         LINE#         52
  C:0DD3H         LINE#         53
  C:0DD3H         LINE#         54
  C:0DD3H         LINE#         55
  C:0DD3H         LINE#         56
  C:0DD3H         LINE#         57
  C:0DEEH         LINE#         58
  C:0DEEH         LINE#         59
  C:0DEEH         LINE#         60
  C:0DF3H         LINE#         61
  C:0DF5H         LINE#         62
  C:0DF5H         LINE#         63
  C:0DFBH         LINE#         64
  C:0DFDH         LINE#         65
  C:0DFDH         LINE#         66
  C:0E03H         LINE#         67
  C:0E05H         LINE#         68
  C:0E05H         LINE#         69
  C:0E0BH         LINE#         70
  C:0E0BH         LINE#         71
  C:0E0BH         LINE#         72
  C:0E0BH         LINE#         73
  C:0E0BH         LINE#         74
  C:0E0BH         LINE#         76
  C:0E0BH         LINE#         77
  C:0E0BH         LINE#         79
  C:0E1AH         LINE#         80
  C:0E1DH         LINE#         82
  C:0E37H         LINE#         83
  -------         ENDPROC       GET_KEYVALUE
  -------         ENDMOD        KEY_4X4

  -------         MODULE        ?C?COPY
  C:0CC3H         PUBLIC        ?C?COPY
  -------         ENDMOD        ?C?COPY

  -------         MODULE        ?C?CLDPTR
  C:0CE9H         PUBLIC        ?C?CLDPTR
  -------         ENDMOD        ?C?CLDPTR

  -------         MODULE        ?C?ILDIX
  C:0D02H         PUBLIC        ?C?ILDIX
BL51 BANKED LINKER/LOCATER V6.22                                                      06/07/2022  21:33:08  PAGE 13


  -------         ENDMOD        ?C?ILDIX

*** WARNING L16: UNCALLED SEGMENT, IGNORED FOR OVERLAY PROCESS
    SEGMENT: ?PR?_SETLCD?LCD12864

*** WARNING L16: UNCALLED SEGMENT, IGNORED FOR OVERLAY PROCESS
    SEGMENT: ?PR?LCD_ROL?LCD12864

Program Size: data=9.0 xdata=3060 code=5106
LINK/LOCATE RUN COMPLETE.  2 WARNING(S),  0 ERROR(S)
