BL51 BANKED LINKER/LOCATER V6.22                                                        06/07/2022  21:15:03  PAGE 1


BL51 BANKED LINKER/LOCATER V6.22, INVOKED BY:
D:\KEIL_V5\C51\BIN\BL51.EXE .\Objects\main.obj, .\Objects\System.obj, .\Objects\lcd12864.obj, .\Objects\pwm.obj, .\Objec
>> ts\adc0809.obj TO .\Objects\TEST PRINT (.\Listings\TEST.m51) RAMSIZE (256)


MEMORY MODEL: LARGE WITH FLOATING POINT ARITHMETIC


INPUT MODULES INCLUDED:
  .\Objects\main.obj (MAIN)
  .\Objects\System.obj (SYSTEM)
  .\Objects\lcd12864.obj (LCD12864)
  .\Objects\pwm.obj (PWM)
  .\Objects\adc0809.obj (ADC0809)
  D:\KEIL_V5\C51\LIB\C51FPL.LIB (?C?FPDIV)
  D:\KEIL_V5\C51\LIB\C51FPL.LIB (?C?FCAST)
  D:\KEIL_V5\C51\LIB\C51FPL.LIB (PRINTF)
  D:\KEIL_V5\C51\LIB\C51FPL.LIB (?C?FPGETOPN)
  D:\KEIL_V5\C51\LIB\C51FPL.LIB (?C?FPROUND)
  D:\KEIL_V5\C51\LIB\C51FPL.LIB (?C?FPCONVERT)
  D:\KEIL_V5\C51\LIB\C51FPL.LIB (?C?FPADD)
  D:\KEIL_V5\C51\LIB\C51FPL.LIB (?C?FPMUL)
  D:\KEIL_V5\C51\LIB\C51FPL.LIB (?C?FTNPWR)
  D:\KEIL_V5\C51\LIB\C51L.LIB (?C_STARTUP)
  D:\KEIL_V5\C51\LIB\C51L.LIB (?C?COPY)
  D:\KEIL_V5\C51\LIB\C51L.LIB (?C?CLDPTR)
  D:\KEIL_V5\C51\LIB\C51L.LIB (?C?CLDOPTR)
  D:\KEIL_V5\C51\LIB\C51L.LIB (?C?CSTPTR)
  D:\KEIL_V5\C51\LIB\C51L.LIB (?C?IMUL)
  D:\KEIL_V5\C51\LIB\C51L.LIB (?C?ILDIX)
  D:\KEIL_V5\C51\LIB\C51L.LIB (?C?LNEG)
  D:\KEIL_V5\C51\LIB\C51L.LIB (?C?LSTXDATA)
  D:\KEIL_V5\C51\LIB\C51L.LIB (?C?LSTKXDATA)
  D:\KEIL_V5\C51\LIB\C51L.LIB (?C?PLDIXDATA)
  D:\KEIL_V5\C51\LIB\C51L.LIB (?C?PSTXDATA)
  D:\KEIL_V5\C51\LIB\C51L.LIB (?C?CCASE)
  D:\KEIL_V5\C51\LIB\C51L.LIB (PUTCHAR)
  D:\KEIL_V5\C51\LIB\C51L.LIB (?C_INIT)


LINK MAP OF MODULE:  .\Objects\TEST (MAIN)


            TYPE    BASE      LENGTH    RELOCATION   SEGMENT NAME
            -----------------------------------------------------

            * * * * * * *   D A T A   M E M O R Y   * * * * * * *
            REG     0000H     0008H     ABSOLUTE     "REG BANK 0"
            DATA    0008H     0005H     UNIT         _DATA_GROUP_
                    000DH     0013H                  *** GAP ***
            BIT     0020H.0   0001H.1   UNIT         _BIT_GROUP_
                    0021H.1   0000H.7                *** GAP ***
            IDATA   0022H     0001H     UNIT         ?STACK

            * * * * * * *  X D A T A   M E M O R Y  * * * * * * *
            XDATA   0000H     0BD0H     UNIT         ?XD?LCD12864
            XDATA   0BD0H     0048H     UNIT         _XDATA_GROUP_
            XDATA   0C18H     0003H     UNIT         ?XD?_SETLCD?LCD12864
BL51 BANKED LINKER/LOCATER V6.22                                                      06/07/2022  21:15:03  PAGE 2


            XDATA   0C1BH     0001H     UNIT         ?XD?LCD_ROL?LCD12864

            * * * * * * *   C O D E   M E M O R Y   * * * * * * *
            CODE    0000H     0003H     ABSOLUTE     
            CODE    0003H     0BDDH     UNIT         ?C_INITSEG
            CODE    0BE0H     06DFH     UNIT         ?C?LIB_CODE
            CODE    12BFH     0483H     UNIT         ?PR?PRINTF?PRINTF
            CODE    1742H     00F7H     UNIT         ?PR?MAIN?MAIN
            CODE    1839H     00CDH     UNIT         ?PR?_DISPLAY?LCD12864
            CODE    1906H     009EH     UNIT         ?PR?_DISPLAYEN?LCD12864
            CODE    19A4H     008CH     UNIT         ?PR?_SHOW_NUM?LCD12864
            CODE    1A30H     008CH     UNIT         ?C_C51STARTUP
            CODE    1ABCH     0081H     UNIT         ?PR?_ADC0809_CONVERT?ADC0809
            CODE    1B3DH     0067H     UNIT         ?PR?_CLEARSCREEN?LCD12864
            CODE    1BA4H     0061H     UNIT         ?PR?LCD12864_SOFTWARE_INIT?LCD12864
            CODE    1C05H     0058H     UNIT         ?PR?SYSTEM_INIT?SYSTEM
            CODE    1C5DH     004FH     UNIT         ?PR?_LCD12864_WRITEBYTE?LCD12864
            CODE    1CACH     0041H     UNIT         ?PR?_SENDCOMMANDTOLCD?LCD12864
            CODE    1CEDH     003FH     UNIT         ?PR?_SETLCD?LCD12864
            CODE    1D2CH     003FH     UNIT         ?PR?LCD_ROL?LCD12864
            CODE    1D6BH     0034H     UNIT         ?PR?_SELECTSCREEN?LCD12864
            CODE    1D9FH     0031H     UNIT         ?PR?PWM1_CONFIGURE?PWM
            CODE    1DD0H     0029H     UNIT         ?PR?_SHOW_HZ?LCD12864
            CODE    1DF9H     0027H     UNIT         ?PR?PUTCHAR?PUTCHAR
            CODE    1E20H     0024H     UNIT         ?CO?MAIN
            CODE    1E44H     001EH     UNIT         ?PR?_DELAY_MS?SYSTEM
            CODE    1E62H     0015H     UNIT         ?PR?_DELAY_US?SYSTEM
            CODE    1E77H     0013H     UNIT         ?PR?LCD_ALL_DIR_OUT?LCD12864
            CODE    1E8AH     0013H     UNIT         ?PR?ADC0809_HARDWARE_INIT?ADC0809
            CODE    1E9DH     0009H     UNIT         ?PR?_SETCOLUMN?LCD12864
            CODE    1EA6H     0007H     UNIT         ?PR?_SETLINE?LCD12864
            CODE    1EADH     0007H     UNIT         ?PR?_SETSTARTLINE?LCD12864
            CODE    1EB4H     0007H     UNIT         ?PR?_SETONOFF?LCD12864



OVERLAY MAP OF MODULE:   .\Objects\TEST (MAIN)


SEGMENT                                        BIT_GROUP          DATA_GROUP          XDATA_GROUP
  +--> CALLED SEGMENT                       START    LENGTH     START    LENGTH     START    LENGTH
---------------------------------------------------------------------------------------------------
?C_C51STARTUP                               -----    -----      -----    -----      -----    -----
  +--> ?PR?MAIN?MAIN
  +--> ?C_INITSEG

?PR?MAIN?MAIN                               -----    -----      -----    -----      0BD0H    0018H
  +--> ?CO?MAIN
  +--> ?PR?SYSTEM_INIT?SYSTEM
  +--> ?PR?PWM1_CONFIGURE?PWM
  +--> ?PR?ADC0809_HARDWARE_INIT?ADC0809
  +--> ?PR?LCD12864_SOFTWARE_INIT?LCD12864
  +--> ?PR?_ADC0809_CONVERT?ADC0809
  +--> ?PR?PRINTF?PRINTF
  +--> ?PR?_SHOW_NUM?LCD12864
  +--> ?PR?_DELAY_MS?SYSTEM

BL51 BANKED LINKER/LOCATER V6.22                                                      06/07/2022  21:15:03  PAGE 3


?PR?SYSTEM_INIT?SYSTEM                      -----    -----      -----    -----      -----    -----
  +--> ?PR?_DELAY_MS?SYSTEM

?PR?LCD12864_SOFTWARE_INIT?LCD12864         -----    -----      -----    -----      -----    -----
  +--> ?PR?LCD_ALL_DIR_OUT?LCD12864
  +--> ?PR?_DELAY_US?SYSTEM
  +--> ?PR?_SELECTSCREEN?LCD12864
  +--> ?PR?_SETONOFF?LCD12864
  +--> ?PR?_CLEARSCREEN?LCD12864
  +--> ?PR?_SETSTARTLINE?LCD12864

?PR?_SELECTSCREEN?LCD12864                  -----    -----      -----    -----      -----    -----
  +--> ?PR?_DELAY_US?SYSTEM

?PR?_SETONOFF?LCD12864                      -----    -----      -----    -----      -----    -----
  +--> ?PR?_SENDCOMMANDTOLCD?LCD12864

?PR?_SENDCOMMANDTOLCD?LCD12864              -----    -----      -----    -----      0BF5H    0001H
  +--> ?PR?_DELAY_US?SYSTEM

?PR?_CLEARSCREEN?LCD12864                   -----    -----      -----    -----      0BE8H    0001H
  +--> ?PR?_SHOW_HZ?LCD12864

?PR?_SHOW_HZ?LCD12864                       -----    -----      -----    -----      -----    -----
  +--> ?PR?_DISPLAY?LCD12864

?PR?_DISPLAY?LCD12864                       -----    -----      -----    -----      0BE9H    0006H
  +--> ?PR?_SETONOFF?LCD12864
  +--> ?PR?_SELECTSCREEN?LCD12864
  +--> ?PR?_SETLINE?LCD12864
  +--> ?PR?_SETCOLUMN?LCD12864
  +--> ?PR?_LCD12864_WRITEBYTE?LCD12864

?PR?_SETLINE?LCD12864                       -----    -----      -----    -----      -----    -----
  +--> ?PR?_SENDCOMMANDTOLCD?LCD12864

?PR?_SETCOLUMN?LCD12864                     -----    -----      -----    -----      -----    -----
  +--> ?PR?_SENDCOMMANDTOLCD?LCD12864

?PR?_LCD12864_WRITEBYTE?LCD12864            -----    -----      -----    -----      0BF5H    0001H
  +--> ?PR?_DELAY_US?SYSTEM

?PR?_SETSTARTLINE?LCD12864                  -----    -----      -----    -----      -----    -----
  +--> ?PR?_SENDCOMMANDTOLCD?LCD12864

?PR?_ADC0809_CONVERT?ADC0809                -----    -----      -----    -----      0BE8H    0001H
  +--> ?PR?_DELAY_US?SYSTEM

?PR?PRINTF?PRINTF                           0020H.0  0001H.1    0008H    0005H      0BE8H    0030H
  +--> ?PR?PUTCHAR?PUTCHAR

?PR?_SHOW_NUM?LCD12864                      -----    -----      -----    -----      0BE8H    0007H
  +--> ?PR?_DISPLAYEN?LCD12864

?PR?_DISPLAYEN?LCD12864                     -----    -----      -----    -----      0BEFH    0006H
  +--> ?PR?_SELECTSCREEN?LCD12864
  +--> ?PR?_SETLINE?LCD12864
BL51 BANKED LINKER/LOCATER V6.22                                                      06/07/2022  21:15:03  PAGE 4


  +--> ?PR?_SETCOLUMN?LCD12864
  +--> ?PR?_LCD12864_WRITEBYTE?LCD12864



SYMBOL TABLE OF MODULE:  .\Objects\TEST (MAIN)

  VALUE           TYPE          NAME
  ----------------------------------

  -------         MODULE        MAIN
  C:0000H         SYMBOL        _ICE_DUMMY_
  D:0080H         PUBLIC        P0
  D:0090H         PUBLIC        P1
  D:00A0H         PUBLIC        P2
  D:00B0H         PUBLIC        P3
  D:00C0H         PUBLIC        P4
  D:00C8H         PUBLIC        P5
  D:00E8H         PUBLIC        P6
  D:00F8H         PUBLIC        P7
  D:00A8H         PUBLIC        IE
  D:00B8H         PUBLIC        IP
  D:00D8H         PUBLIC        CCON
  C:1742H         PUBLIC        main
  D:0098H         PUBLIC        SCON
  D:0088H         PUBLIC        TCON
  C:1E33H         SYMBOL        _?ix1000
  D:00D0H         PUBLIC        PSW
  -------         PROC          MAIN
  -------         DO            
  X:0BD0H         SYMBOL        sx
  X:0BD1H         SYMBOL        vol
  X:0BD5H         SYMBOL        chl
  X:0BD7H         SYMBOL        show
  -------         ENDDO         
  C:1742H         LINE#         49
  C:1742H         LINE#         50
  C:1742H         LINE#         51
  C:1747H         LINE#         52
  C:174FH         LINE#         53
  C:1756H         LINE#         54
  C:1768H         LINE#         55
  C:176BH         LINE#         56
  C:176EH         LINE#         57
  C:1771H         LINE#         58
  C:1774H         LINE#         59
  C:1774H         LINE#         60
  C:1774H         LINE#         61
  C:1779H         LINE#         63
  C:1791H         LINE#         64
  C:1791H         LINE#         66
  C:17A9H         LINE#         67
  C:17A9H         LINE#         68
  C:17CFH         LINE#         69
  C:1809H         LINE#         70
  C:181BH         LINE#         71
  C:1821H         LINE#         72
BL51 BANKED LINKER/LOCATER V6.22                                                      06/07/2022  21:15:03  PAGE 5


  C:1828H         LINE#         73
  C:1828H         LINE#         74
  -------         ENDPROC       MAIN
  -------         ENDMOD        MAIN

  -------         MODULE        SYSTEM
  C:0000H         SYMBOL        _ICE_DUMMY_
  D:0092H         PUBLIC        P1M0
  D:0093H         PUBLIC        P0M1
  C:1C05H         PUBLIC        System_Init
  D:0096H         PUBLIC        P2M0
  D:0091H         PUBLIC        P1M1
  D:0080H         PUBLIC        P0
  D:00B2H         PUBLIC        P3M0
  D:0095H         PUBLIC        P2M1
  D:0090H         PUBLIC        P1
  D:00B4H         PUBLIC        P4M0
  D:00B1H         PUBLIC        P3M1
  D:00A0H         PUBLIC        P2
  D:00CAH         PUBLIC        P5M0
  D:00B3H         PUBLIC        P4M1
  D:00B0H         PUBLIC        P3
  D:00CCH         PUBLIC        P6M0
  D:00C9H         PUBLIC        P5M1
  D:00C0H         PUBLIC        P4
  D:00E2H         PUBLIC        P7M0
  D:00CBH         PUBLIC        P6M1
  D:00C8H         PUBLIC        P5
  D:00E1H         PUBLIC        P7M1
  D:00E8H         PUBLIC        P6
  D:00F8H         PUBLIC        P7
  D:00BAH         PUBLIC        P_SW2
  D:00A8H         PUBLIC        IE
  D:00B8H         PUBLIC        IP
  D:00D8H         PUBLIC        CCON
  C:1E44H         PUBLIC        _Delay_ms
  D:0098H         PUBLIC        SCON
  D:0088H         PUBLIC        TCON
  C:1E62H         PUBLIC        _Delay_us
  D:00FFH         PUBLIC        RSTCFG
  D:00D0H         PUBLIC        PSW
  D:0094H         PUBLIC        P0M0
  -------         PROC          _DELAY_MS
  D:0006H         SYMBOL        ms
  -------         DO            
  D:0004H         SYMBOL        i
  -------         ENDDO         
  C:1E44H         LINE#         14
  C:1E44H         LINE#         15
  C:1E44H         LINE#         17
  C:1E4EH         LINE#         18
  C:1E4EH         LINE#         19
  C:1E61H         LINE#         20
  C:1E61H         LINE#         21
  -------         ENDPROC       _DELAY_MS
  -------         PROC          _DELAY_US
  D:0006H         SYMBOL        us
BL51 BANKED LINKER/LOCATER V6.22                                                      06/07/2022  21:15:03  PAGE 6


  -------         DO            
  D:0005H         SYMBOL        i
  -------         ENDDO         
  C:1E62H         LINE#         36
  C:1E62H         LINE#         37
  C:1E62H         LINE#         39
  C:1E6CH         LINE#         40
  C:1E6CH         LINE#         41
  C:1E6DH         LINE#         42
  C:1E6EH         LINE#         43
  C:1E70H         LINE#         44
  C:1E76H         LINE#         46
  -------         ENDPROC       _DELAY_US
  -------         PROC          SYSTEM_INIT
  C:1C05H         LINE#         56
  C:1C05H         LINE#         57
  C:1C05H         LINE#         58
  C:1C0CH         LINE#         59
  C:1C0FH         LINE#         60
  C:1C16H         LINE#         61
  C:1C1DH         LINE#         62
  C:1C23H         LINE#         63
  C:1C27H         LINE#         64
  C:1C2AH         LINE#         67
  C:1C2DH         LINE#         71
  C:1C32H         LINE#         73
  C:1C37H         LINE#         75
  C:1C3CH         LINE#         77
  C:1C41H         LINE#         79
  C:1C46H         LINE#         81
  C:1C4BH         LINE#         83
  C:1C50H         LINE#         87
  C:1C56H         LINE#         89
  C:1C5CH         LINE#         90
  -------         ENDPROC       SYSTEM_INIT
  -------         ENDMOD        SYSTEM

  -------         MODULE        LCD12864
  C:0000H         SYMBOL        _ICE_DUMMY_
  D:0093H         PUBLIC        P0M1
  D:0096H         PUBLIC        P2M0
  D:0080H         PUBLIC        P0
  D:0095H         PUBLIC        P2M1
  D:0090H         PUBLIC        P1
  C:1CEDH         PUBLIC        _SetLCD
  D:00A0H         PUBLIC        P2
  C:1BA4H         PUBLIC        LCD12864_Software_Init
  D:00B0H         PUBLIC        P3
  D:00C0H         PUBLIC        P4
  D:00C8H         PUBLIC        P5
  D:00E8H         PUBLIC        P6
  D:00F8H         PUBLIC        P7
  C:1EB4H         PUBLIC        _SetOnOff
  D:00A8H         PUBLIC        IE
  X:0000H         PUBLIC        ascll
  D:00B8H         PUBLIC        IP
  C:1E9DH         PUBLIC        _SetColumn
BL51 BANKED LINKER/LOCATER V6.22                                                      06/07/2022  21:15:03  PAGE 7


  D:00D8H         PUBLIC        CCON
  C:1E77H         PUBLIC        LCD_ALL_DIR_OUT
  X:0800H         PUBLIC        Ezk
  X:0900H         PUBLIC        Hzk
  C:1906H         PUBLIC        _Displayen
  D:0098H         PUBLIC        SCON
  C:19A4H         PUBLIC        _Show_Num
  D:0088H         PUBLIC        TCON
  C:1EA6H         PUBLIC        _SetLine
  C:1DD7H         PUBLIC        _Show_Hz
  C:1D6BH         PUBLIC        _SelectScreen
  C:1EADH         PUBLIC        _SetStartLine
  C:1B3DH         PUBLIC        _ClearScreen
  C:1839H         PUBLIC        _Display
  C:1C61H         PUBLIC        _LCD12864_WriteByte
  C:1D2CH         PUBLIC        lcd_rol
  C:1CACH         PUBLIC        _SendCommandToLCD
  D:00D0H         PUBLIC        PSW
  D:0094H         PUBLIC        P0M0
  -------         PROC          _SENDCOMMANDTOLCD
  X:0BF5H         SYMBOL        com
  C:1CACH         LINE#         11
  C:1CB1H         LINE#         12
  C:1CB1H         LINE#         13
  C:1CB8H         LINE#         14
  C:1CBBH         LINE#         15
  C:1CC2H         LINE#         16
  C:1CC5H         LINE#         17
  C:1CC8H         LINE#         18
  C:1CCEH         LINE#         19
  C:1CD5H         LINE#         20
  C:1CD8H         LINE#         21
  C:1CDFH         LINE#         22
  C:1CE2H         LINE#         23
  C:1CE9H         LINE#         24
  C:1CECH         LINE#         25
  -------         ENDPROC       _SENDCOMMANDTOLCD
  -------         PROC          _SETLCD
  X:0C18H         SYMBOL        page
  X:0C19H         SYMBOL        startline
  X:0C1AH         SYMBOL        column
  C:1CEDH         LINE#         33
  C:1CF8H         LINE#         34
  C:1CF8H         LINE#         35
  C:1CFFH         LINE#         36
  C:1D07H         LINE#         37
  C:1D0EH         LINE#         38
  C:1D16H         LINE#         39
  C:1D1DH         LINE#         40
  C:1D25H         LINE#         41
  -------         ENDPROC       _SETLCD
  -------         PROC          _SETLINE
  D:0007H         SYMBOL        page
  C:1EA6H         LINE#         44
  C:1EA6H         LINE#         45
  C:1EA6H         LINE#         46
  C:1EAAH         LINE#         47
BL51 BANKED LINKER/LOCATER V6.22                                                      06/07/2022  21:15:03  PAGE 8


  -------         ENDPROC       _SETLINE
  -------         PROC          _SETSTARTLINE
  D:0007H         SYMBOL        startline
  C:1EADH         LINE#         51
  C:1EADH         LINE#         52
  C:1EADH         LINE#         53
  C:1EB1H         LINE#         54
  -------         ENDPROC       _SETSTARTLINE
  -------         PROC          _SETCOLUMN
  D:0007H         SYMBOL        column
  C:1E9DH         LINE#         58
  C:1E9DH         LINE#         59
  C:1E9DH         LINE#         60
  C:1EA0H         LINE#         61
  C:1EA3H         LINE#         62
  -------         ENDPROC       _SETCOLUMN
  -------         PROC          _SETONOFF
  D:0007H         SYMBOL        onoff
  C:1EB4H         LINE#         67
  C:1EB4H         LINE#         68
  C:1EB4H         LINE#         69
  C:1EB8H         LINE#         70
  -------         ENDPROC       _SETONOFF
  C:1C5DH         SYMBOL        L?0053
  -------         PROC          L?0052
  -------         ENDPROC       L?0052
  C:1C5DH         SYMBOL        L?0053
  -------         PROC          _LCD12864_WRITEBYTE
  X:0BF5H         SYMBOL        dat
  C:1C61H         LINE#         79
  C:1C66H         LINE#         80
  C:1C66H         LINE#         81
  C:1C6DH         LINE#         82
  C:1C70H         LINE#         83
  C:1C77H         LINE#         84
  C:1C7AH         LINE#         85
  C:1C81H         LINE#         86
  C:1C84H         LINE#         87
  C:1C87H         LINE#         88
  C:1C8DH         LINE#         89
  C:1C94H         LINE#         90
  C:1C97H         LINE#         91
  C:1C9EH         LINE#         92
  C:1CA1H         LINE#         93
  C:1CA8H         LINE#         94
  C:1CABH         LINE#         95
  -------         ENDPROC       _LCD12864_WRITEBYTE
  -------         PROC          _SELECTSCREEN
  D:0007H         SYMBOL        screen
  C:1D6BH         LINE#         105
  C:1D6BH         LINE#         106
  C:1D6BH         LINE#         107
  C:1D76H         LINE#         108
  C:1D76H         LINE#         109
  C:1D79H         LINE#         110
  C:1D79H         LINE#         111
  C:1D79H         LINE#         112
BL51 BANKED LINKER/LOCATER V6.22                                                      06/07/2022  21:15:03  PAGE 9


  C:1D79H         LINE#         113
  C:1D7BH         LINE#         114
  C:1D7EH         LINE#         115
  C:1D85H         LINE#         116
  C:1D88H         LINE#         117
  C:1D88H         LINE#         118
  C:1D8AH         LINE#         119
  C:1D8DH         LINE#         120
  C:1D94H         LINE#         121
  C:1D97H         LINE#         122
  C:1D9EH         LINE#         123
  C:1D9EH         LINE#         124
  C:1D9EH         LINE#         125
  C:1D9EH         LINE#         126
  -------         ENDPROC       _SELECTSCREEN
  -------         PROC          _CLEARSCREEN
  X:0BE8H         SYMBOL        screen
  C:1B3DH         LINE#         134
  C:1B42H         LINE#         135
  C:1B42H         LINE#         136
  C:1B4EH         LINE#         137
  C:1B4EH         LINE#         138
  C:1B55H         LINE#         139
  C:1B5AH         LINE#         140
  C:1B5FH         LINE#         141
  C:1B6BH         LINE#         142
  C:1B77H         LINE#         143
  C:1B83H         LINE#         144
  C:1B8FH         LINE#         145
  C:1B9BH         LINE#         146
  C:1BA3H         LINE#         147
  -------         ENDPROC       _CLEARSCREEN
  -------         PROC          LCD_ROL
  -------         DO            
  X:0C1BH         SYMBOL        i
  -------         ENDDO         
  C:1D2CH         LINE#         155
  C:1D2CH         LINE#         156
  C:1D2CH         LINE#         158
  C:1D3BH         LINE#         159
  C:1D3BH         LINE#         160
  C:1D3EH         LINE#         161
  C:1D45H         LINE#         162
  C:1D48H         LINE#         163
  C:1D4BH         LINE#         164
  C:1D58H         LINE#         165
  C:1D5BH         LINE#         166
  C:1D62H         LINE#         167
  C:1D6AH         LINE#         168
  -------         ENDPROC       LCD_ROL
  -------         PROC          LCD12864_SOFTWARE_INIT
  C:1BA4H         LINE#         176
  C:1BA4H         LINE#         177
  C:1BA4H         LINE#         178
  C:1BA7H         LINE#         179
  C:1BAEH         LINE#         180
  C:1BB3H         LINE#         181
BL51 BANKED LINKER/LOCATER V6.22                                                      06/07/2022  21:15:03  PAGE 10


  C:1BB8H         LINE#         182
  C:1BBFH         LINE#         183
  C:1BC4H         LINE#         184
  C:1BC9H         LINE#         185
  C:1BD0H         LINE#         186
  C:1BD5H         LINE#         187
  C:1BDAH         LINE#         188
  C:1BE1H         LINE#         189
  C:1BE6H         LINE#         190
  C:1BEDH         LINE#         191
  C:1BF2H         LINE#         192
  C:1BF9H         LINE#         193
  C:1BFEH         LINE#         194
  -------         ENDPROC       LCD12864_SOFTWARE_INIT
  -------         PROC          L?0051
  -------         ENDPROC       L?0051
  -------         PROC          _SHOW_HZ
  D:0006H         SYMBOL        x
  D:0005H         SYMBOL        y
  D:0004H         SYMBOL        hz
  -------         DO            
  D:0007H         SYMBOL        l_r
  -------         ENDDO         
  C:1DD7H         LINE#         203
  C:1DDBH         LINE#         204
  C:1DDBH         LINE#         205
  C:1DDDH         LINE#         206
  C:1DE3H         LINE#         207
  C:1DE6H         LINE#         209
  C:1DE8H         LINE#         210
  -------         ENDPROC       _SHOW_HZ
  -------         PROC          _SHOW_NUM
  X:0BE8H         SYMBOL        x
  X:0BE9H         SYMBOL        y
  X:0BEAH         SYMBOL        str
  -------         DO            
  X:0BEDH         SYMBOL        l_r
  X:0BEEH         SYMBOL        i
  -------         ENDDO         
  C:19A4H         LINE#         219
  C:19B5H         LINE#         220
  C:19B5H         LINE#         221
  C:19BAH         LINE#         222
  C:19CAH         LINE#         223
  C:19CAH         LINE#         224
  C:19D3H         LINE#         225
  C:19DCH         LINE#         226
  C:19EEH         LINE#         227
  C:19F1H         LINE#         228
  C:1A27H         LINE#         229
  C:1A2DH         LINE#         230
  C:1A2FH         LINE#         231
  -------         ENDPROC       _SHOW_NUM
  -------         PROC          _DISPLAY
  X:0BE9H         SYMBOL        ss
  X:0BEAH         SYMBOL        page
  X:0BEBH         SYMBOL        column
BL51 BANKED LINKER/LOCATER V6.22                                                      06/07/2022  21:15:03  PAGE 11


  X:0BECH         SYMBOL        number
  -------         DO            
  X:0BEDH         SYMBOL        i
  -------         ENDDO         
  C:1839H         LINE#         239
  C:1844H         LINE#         240
  C:1844H         LINE#         242
  C:1849H         LINE#         243
  C:1851H         LINE#         244
  C:1858H         LINE#         245
  C:1860H         LINE#         246
  C:1868H         LINE#         247
  C:1881H         LINE#         248
  C:1881H         LINE#         249
  C:189EH         LINE#         250
  C:18AEH         LINE#         251
  C:18B7H         LINE#         252
  C:18BFH         LINE#         253
  C:18D8H         LINE#         254
  C:18D8H         LINE#         255
  C:18F5H         LINE#         256
  C:1905H         LINE#         257
  -------         ENDPROC       _DISPLAY
  -------         PROC          _DISPLAYEN
  D:0007H         SYMBOL        ss
  X:0BF0H         SYMBOL        page
  X:0BF1H         SYMBOL        column
  X:0BF2H         SYMBOL        num
  -------         DO            
  X:0BF3H         SYMBOL        i
  X:0BF4H         SYMBOL        number
  -------         ENDDO         
  C:1906H         LINE#         265
  C:190EH         LINE#         266
  C:190EH         LINE#         268
  C:1914H         LINE#         269
  C:1917H         LINE#         270
  C:191EH         LINE#         271
  C:1926H         LINE#         272
  C:192EH         LINE#         273
  C:193DH         LINE#         274
  C:193DH         LINE#         275
  C:1958H         LINE#         276
  C:1960H         LINE#         277
  C:1969H         LINE#         278
  C:1971H         LINE#         279
  C:1980H         LINE#         280
  C:1980H         LINE#         281
  C:199BH         LINE#         282
  C:19A3H         LINE#         283
  -------         ENDPROC       _DISPLAYEN
  -------         PROC          LCD_ALL_DIR_OUT
  C:1E77H         LINE#         291
  C:1E77H         LINE#         292
  C:1E77H         LINE#         293
  C:1E7DH         LINE#         294
  C:1E83H         LINE#         295
BL51 BANKED LINKER/LOCATER V6.22                                                      06/07/2022  21:15:03  PAGE 12


  C:1E86H         LINE#         296
  C:1E89H         LINE#         297
  -------         ENDPROC       LCD_ALL_DIR_OUT
  -------         ENDMOD        LCD12864

  -------         MODULE        PWM
  C:0000H         SYMBOL        _ICE_DUMMY_
  D:0092H         PUBLIC        P1M0
  D:0091H         PUBLIC        P1M1
  D:0080H         PUBLIC        P0
  D:0090H         PUBLIC        P1
  D:00A0H         PUBLIC        P2
  D:00B0H         PUBLIC        P3
  D:00C0H         PUBLIC        P4
  D:00C8H         PUBLIC        P5
  D:00E8H         PUBLIC        P6
  D:00F8H         PUBLIC        P7
  D:00FEH         PUBLIC        PWMCR
  D:00BAH         PUBLIC        P_SW2
  D:00A8H         PUBLIC        IE
  D:00B8H         PUBLIC        IP
  D:00D8H         PUBLIC        CCON
  D:0098H         PUBLIC        SCON
  D:0088H         PUBLIC        TCON
  C:1D9FH         PUBLIC        Pwm1_Configure
  D:00D0H         PUBLIC        PSW
  -------         PROC          PWM1_CONFIGURE
  C:1D9FH         LINE#         10
  C:1D9FH         LINE#         11
  C:1D9FH         LINE#         12
  C:1DA2H         LINE#         13
  C:1DA7H         LINE#         14
  C:1DAFH         LINE#         15
  C:1DB8H         LINE#         16
  C:1DBFH         LINE#         17
  C:1DC3H         LINE#         18
  C:1DC6H         LINE#         19
  C:1DC9H         LINE#         20
  C:1DCFH         LINE#         21
  -------         ENDPROC       PWM1_CONFIGURE
  -------         ENDMOD        PWM

  -------         MODULE        ADC0809
  C:0000H         SYMBOL        _ICE_DUMMY_
  D:0080H         PUBLIC        P0
  D:0090H         PUBLIC        P1
  D:00A0H         PUBLIC        P2
  D:00B0H         PUBLIC        P3
  D:00CCH         PUBLIC        P6M0
  D:00C0H         PUBLIC        P4
  D:00E2H         PUBLIC        P7M0
  D:00CBH         PUBLIC        P6M1
  D:00C8H         PUBLIC        P5
  D:00E1H         PUBLIC        P7M1
  D:00E8H         PUBLIC        P6
  D:00F8H         PUBLIC        P7
  D:00A8H         PUBLIC        IE
BL51 BANKED LINKER/LOCATER V6.22                                                      06/07/2022  21:15:03  PAGE 13


  D:00B8H         PUBLIC        IP
  D:00D8H         PUBLIC        CCON
  C:1E8AH         PUBLIC        ADC0809_Hardware_Init
  D:0098H         PUBLIC        SCON
  D:0088H         PUBLIC        TCON
  B:00E8H.1       PUBLIC        P61
  C:1ABCH         PUBLIC        _ADC0809_Convert
  D:00D0H         PUBLIC        PSW
  -------         PROC          ADC0809_HARDWARE_INIT
  C:1E8AH         LINE#         10
  C:1E8AH         LINE#         11
  C:1E8AH         LINE#         12
  C:1E90H         LINE#         13
  C:1E96H         LINE#         14
  C:1E9CH         LINE#         15
  -------         ENDPROC       ADC0809_HARDWARE_INIT
  -------         PROC          _ADC0809_CONVERT
  D:0007H         SYMBOL        chlx
  -------         DO            
  X:0BE8H         SYMBOL        temp
  -------         ENDDO         
  C:1ABCH         LINE#         23
  C:1ABCH         LINE#         24
  C:1ABCH         LINE#         25
  C:1AC1H         LINE#         27
  C:1ACDH         LINE#         28
  C:1ADBH         LINE#         29
  C:1AEBH         LINE#         30
  C:1AF2H         LINE#         32
  C:1AF5H         LINE#         33
  C:1AFCH         LINE#         34
  C:1AFFH         LINE#         35
  C:1B06H         LINE#         36
  C:1B09H         LINE#         37
  C:1B10H         LINE#         38
  C:1B13H         LINE#         39
  C:1B1AH         LINE#         41
  C:1B1DH         LINE#         43
  C:1B20H         LINE#         44
  C:1B27H         LINE#         46
  C:1B2DH         LINE#         47
  C:1B34H         LINE#         49
  C:1B37H         LINE#         51
  C:1B3CH         LINE#         52
  -------         ENDPROC       _ADC0809_CONVERT
  -------         ENDMOD        ADC0809

  -------         MODULE        ?C?FPDIV
  C:0BE3H         PUBLIC        ?C?FPDIV
  -------         ENDMOD        ?C?FPDIV

  -------         MODULE        ?C?FCAST
  C:0C8AH         PUBLIC        ?C?FCASTC
  C:0C85H         PUBLIC        ?C?FCASTI
  C:0C80H         PUBLIC        ?C?FCASTL
  -------         ENDMOD        ?C?FCAST

BL51 BANKED LINKER/LOCATER V6.22                                                      06/07/2022  21:15:03  PAGE 14


  -------         MODULE        PRINTF
  X:0BE8H         PUBLIC        ?_PRINTF?BYTE
  X:0BE8H         PUBLIC        ?_SPRINTF?BYTE
  C:132AH         PUBLIC        _PRINTF
  C:1324H         PUBLIC        _SPRINTF
  -------         ENDMOD        PRINTF

  -------         MODULE        ?C?FPROUND
  C:0D08H         PUBLIC        ?C?FPROUND
  -------         ENDMOD        ?C?FPROUND

  -------         MODULE        ?C?FPCONVERT
  C:0D45H         PUBLIC        ?C?FPCONVERT
  -------         ENDMOD        ?C?FPCONVERT

  -------         MODULE        ?C?FPADD
  C:0E51H         PUBLIC        ?C?FPADD
  C:0E4DH         PUBLIC        ?C?FPSUB
  -------         ENDMOD        ?C?FPADD

  -------         MODULE        ?C?FPMUL
  C:0F42H         PUBLIC        ?C?FPMUL
  -------         ENDMOD        ?C?FPMUL

  -------         MODULE        ?C?FTNPWR
  C:1078H         PUBLIC        ?C?FTNPWR
  -------         ENDMOD        ?C?FTNPWR

  -------         MODULE        ?C?COPY
  C:1188H         PUBLIC        ?C?COPY
  -------         ENDMOD        ?C?COPY

  -------         MODULE        ?C?CLDPTR
  C:11AEH         PUBLIC        ?C?CLDPTR
  -------         ENDMOD        ?C?CLDPTR

  -------         MODULE        ?C?CLDOPTR
  C:11C7H         PUBLIC        ?C?CLDOPTR
  -------         ENDMOD        ?C?CLDOPTR

  -------         MODULE        ?C?CSTPTR
  C:11F4H         PUBLIC        ?C?CSTPTR
  -------         ENDMOD        ?C?CSTPTR

  -------         MODULE        ?C?IMUL
  C:1206H         PUBLIC        ?C?IMUL
  -------         ENDMOD        ?C?IMUL

  -------         MODULE        ?C?ILDIX
  C:1218H         PUBLIC        ?C?ILDIX
  -------         ENDMOD        ?C?ILDIX

  -------         MODULE        ?C?LNEG
  C:122EH         PUBLIC        ?C?LNEG
  -------         ENDMOD        ?C?LNEG

  -------         MODULE        ?C?LSTXDATA
BL51 BANKED LINKER/LOCATER V6.22                                                      06/07/2022  21:15:03  PAGE 15


  C:123CH         PUBLIC        ?C?LSTXDATA
  -------         ENDMOD        ?C?LSTXDATA

  -------         MODULE        ?C?LSTKXDATA
  C:1248H         PUBLIC        ?C?LSTKXDATA
  -------         ENDMOD        ?C?LSTKXDATA

  -------         MODULE        ?C?PLDIXDATA
  C:1279H         PUBLIC        ?C?PLDIXDATA
  -------         ENDMOD        ?C?PLDIXDATA

  -------         MODULE        ?C?PSTXDATA
  C:1290H         PUBLIC        ?C?PSTXDATA
  -------         ENDMOD        ?C?PSTXDATA

  -------         MODULE        ?C?CCASE
  C:1299H         PUBLIC        ?C?CCASE
  -------         ENDMOD        ?C?CCASE

  -------         MODULE        PUTCHAR
  C:1DF9H         PUBLIC        _PUTCHAR
  -------         ENDMOD        PUTCHAR

*** WARNING L16: UNCALLED SEGMENT, IGNORED FOR OVERLAY PROCESS
    SEGMENT: ?PR?_SETLCD?LCD12864

*** WARNING L16: UNCALLED SEGMENT, IGNORED FOR OVERLAY PROCESS
    SEGMENT: ?PR?LCD_ROL?LCD12864

Program Size: data=15.1 xdata=3100 code=7867
LINK/LOCATE RUN COMPLETE.  2 WARNING(S),  0 ERROR(S)
