BL51 BANKED LINKER/LOCATER V6.22                                                        06/29/2022  17:51:34  PAGE 1


BL51 BANKED LINKER/LOCATER V6.22, INVOKED BY:
D:\SOFTWARE\C51\BIN\BL51.EXE .\Objects\main.obj, .\Objects\System.obj, .\Objects\key.obj, .\Objects\lcd12864.obj, .\Obje
>> cts\24C02.obj, .\Objects\IIC.obj TO .\Objects\TEST PRINT (.\Listings\TEST.m51) RAMSIZE (256)


MEMORY MODEL: LARGE


INPUT MODULES INCLUDED:
  .\Objects\main.obj (MAIN)
  .\Objects\System.obj (SYSTEM)
  .\Objects\key.obj (KEY)
  .\Objects\lcd12864.obj (LCD12864)
  .\Objects\24C02.obj (24C02)
  .\Objects\IIC.obj (IIC)
  D:\SOFTWARE\C51\LIB\C51L.LIB (?C_STARTUP)
  D:\SOFTWARE\C51\LIB\C51L.LIB (?C?CLDPTR)
  D:\SOFTWARE\C51\LIB\C51L.LIB (?C?CSTPTR)
  D:\SOFTWARE\C51\LIB\C51L.LIB (?C?IILDX)
  D:\SOFTWARE\C51\LIB\C51L.LIB (?C?ILDIX)
  D:\SOFTWARE\C51\LIB\C51L.LIB (?C?ULSHR)
  D:\SOFTWARE\C51\LIB\C51L.LIB (?C?LSHL)
  D:\SOFTWARE\C51\LIB\C51L.LIB (?C?LSTXDATA)
  D:\SOFTWARE\C51\LIB\C51L.LIB (?C?LSTKXDATA)
  D:\SOFTWARE\C51\LIB\C51L.LIB (?C_INIT)


LINK MAP OF MODULE:  .\Objects\TEST (MAIN)


            TYPE    BASE      LENGTH    RELOCATION   SEGMENT NAME
            -----------------------------------------------------

            * * * * * * *   D A T A   M E M O R Y   * * * * * * *
            REG     0000H     0008H     ABSOLUTE     "REG BANK 0"
            IDATA   0008H     0001H     UNIT         ?STACK

            * * * * * * *  X D A T A   M E M O R Y  * * * * * * *
            XDATA   0000H     0BD0H     UNIT         ?XD?LCD12864
            XDATA   0BD0H     001DH     UNIT         _XDATA_GROUP_
            XDATA   0BEDH     000EH     UNIT         ?XD?MAIN
            XDATA   0BFBH     0008H     UNIT         ?XD?_IC_24CXX_WAITLENBYTE?24C02
            XDATA   0C03H     0008H     UNIT         ?XD?_IC_24CXX_READLENBYTE?24C02
            XDATA   0C0BH     0003H     UNIT         ?XD?_SETLCD?LCD12864
            XDATA   0C0EH     0001H     UNIT         ?XD?LCD_ROL?LCD12864

            * * * * * * *   C O D E   M E M O R Y   * * * * * * *
            CODE    0000H     0003H     ABSOLUTE     
            CODE    0003H     0BEEH     UNIT         ?C_INITSEG
            CODE    0BF1H     010EH     UNIT         ?PR?MAIN?MAIN
            CODE    0CFFH     00CDH     UNIT         ?PR?_DISPLAY?LCD12864
            CODE    0DCCH     00BAH     UNIT         ?C?LIB_CODE
            CODE    0E86H     009EH     UNIT         ?PR?_DISPLAYEN?LCD12864
            CODE    0F24H     008CH     UNIT         ?PR?_SHOW_NUM?LCD12864
            CODE    0FB0H     008CH     UNIT         ?C_C51STARTUP
            CODE    103CH     0074H     UNIT         ?CO?MAIN
            CODE    10B0H     0071H     UNIT         ?PR?_IC_24CXX_READLENBYTE?24C02
            CODE    1121H     0067H     UNIT         ?PR?_CLEARSCREEN?LCD12864
BL51 BANKED LINKER/LOCATER V6.22                                                      06/29/2022  17:51:34  PAGE 2


            CODE    1188H     0061H     UNIT         ?PR?LCD12864_SOFTWARE_INIT?LCD12864
            CODE    11E9H     0058H     UNIT         ?PR?SYSTEM_INIT?SYSTEM
            CODE    1241H     0057H     UNIT         ?PR?_IC_24CXX_WAITLENBYTE?24C02
            CODE    1298H     0054H     UNIT         ?PR?_IIC_SEND_BYTE?IIC
            CODE    12ECH     0052H     UNIT         ?PR?_IC_24CXX_WRITE?24C02
            CODE    133EH     0052H     UNIT         ?PR?_IIC_READ_BYTE?IIC
            CODE    1390H     0050H     UNIT         ?PR?_IC_24CXX_READ?24C02
            CODE    13E0H     004FH     UNIT         ?PR?_LCD12864_WRITEBYTE?LCD12864
            CODE    142FH     0041H     UNIT         ?PR?_SENDCOMMANDTOLCD?LCD12864
            CODE    1470H     0040H     UNIT         ?PR?_IC_24CXX_READ_BYTE?24C02
            CODE    14B0H     003FH     UNIT         ?PR?_SETLCD?LCD12864
            CODE    14EFH     003FH     UNIT         ?PR?LCD_ROL?LCD12864
            CODE    152EH     0037H     UNIT         ?PR?_IC_24CXX_WRITE_BYTE?24C02
            CODE    1565H     0036H     UNIT         ?PR?KEY_SCAN?KEY
            CODE    159BH     0036H     UNIT         ?PR?IIC_WAIT_ACK?IIC
            CODE    15D1H     0034H     UNIT         ?PR?_SELECTSCREEN?LCD12864
            CODE    1605H     0029H     UNIT         ?PR?_SHOW_HZ?LCD12864
            CODE    162EH     0028H     UNIT         ?PR?IC_24CXX_CHECK?24C02
            CODE    1656H     001EH     UNIT         ?PR?_DELAY_MS?SYSTEM
            CODE    1674H     001EH     UNIT         ?PR?IIC_START?IIC
            CODE    1692H     001EH     UNIT         ?PR?IIC_ACK?IIC
            CODE    16B0H     001EH     UNIT         ?PR?IIC_NACK?IIC
            CODE    16CEH     001DH     UNIT         ?PR?IIC_STOP?IIC
            CODE    16EBH     0015H     UNIT         ?PR?_DELAY_US?SYSTEM
            CODE    1700H     0013H     UNIT         ?PR?LCD_ALL_DIR_OUT?LCD12864
            CODE    1713H     000DH     UNIT         ?PR?IIC_HARDWARE_INIT?IIC
            CODE    1720H     0009H     UNIT         ?PR?_SETCOLUMN?LCD12864
            CODE    1729H     0007H     UNIT         ?PR?KEY_CONFIGURE?KEY
            CODE    1730H     0007H     UNIT         ?PR?_SETLINE?LCD12864
            CODE    1737H     0007H     UNIT         ?PR?_SETSTARTLINE?LCD12864
            CODE    173EH     0007H     UNIT         ?PR?_SETONOFF?LCD12864
            CODE    1745H     0007H     UNIT         ?PR?SDA_IN?IIC
            CODE    174CH     0007H     UNIT         ?PR?SDA_OUT?IIC
            CODE    1753H     0003H     UNIT         ?PR?IC_24CXX_INIT?24C02



OVERLAY MAP OF MODULE:   .\Objects\TEST (MAIN)


SEGMENT                                       XDATA_GROUP
  +--> CALLED SEGMENT                       START    LENGTH
-----------------------------------------------------------
?C_C51STARTUP                               -----    -----
  +--> ?PR?MAIN?MAIN
  +--> ?C_INITSEG

?PR?MAIN?MAIN                               0BD0H    000FH
  +--> ?PR?SYSTEM_INIT?SYSTEM
  +--> ?PR?KEY_CONFIGURE?KEY
  +--> ?PR?IIC_HARDWARE_INIT?IIC
  +--> ?PR?LCD12864_SOFTWARE_INIT?LCD12864
  +--> ?PR?IC_24CXX_CHECK?24C02
  +--> ?PR?_CLEARSCREEN?LCD12864
  +--> ?CO?MAIN
  +--> ?PR?_SHOW_NUM?LCD12864
  +--> ?PR?_DELAY_MS?SYSTEM
BL51 BANKED LINKER/LOCATER V6.22                                                      06/29/2022  17:51:34  PAGE 3


  +--> ?PR?KEY_SCAN?KEY
  +--> ?PR?_IC_24CXX_WRITE?24C02
  +--> ?PR?_IC_24CXX_READ?24C02

?PR?SYSTEM_INIT?SYSTEM                      -----    -----
  +--> ?PR?_DELAY_MS?SYSTEM

?PR?LCD12864_SOFTWARE_INIT?LCD12864         -----    -----
  +--> ?PR?LCD_ALL_DIR_OUT?LCD12864
  +--> ?PR?_DELAY_US?SYSTEM
  +--> ?PR?_SELECTSCREEN?LCD12864
  +--> ?PR?_SETONOFF?LCD12864
  +--> ?PR?_CLEARSCREEN?LCD12864
  +--> ?PR?_SETSTARTLINE?LCD12864

?PR?_SELECTSCREEN?LCD12864                  -----    -----
  +--> ?PR?_DELAY_US?SYSTEM

?PR?_SETONOFF?LCD12864                      -----    -----
  +--> ?PR?_SENDCOMMANDTOLCD?LCD12864

?PR?_SENDCOMMANDTOLCD?LCD12864              0BECH    0001H
  +--> ?PR?_DELAY_US?SYSTEM

?PR?_CLEARSCREEN?LCD12864                   0BDFH    0001H
  +--> ?PR?_SHOW_HZ?LCD12864

?PR?_SHOW_HZ?LCD12864                       -----    -----
  +--> ?PR?_DISPLAY?LCD12864

?PR?_DISPLAY?LCD12864                       0BE0H    0006H
  +--> ?PR?_SETONOFF?LCD12864
  +--> ?PR?_SELECTSCREEN?LCD12864
  +--> ?PR?_SETLINE?LCD12864
  +--> ?PR?_SETCOLUMN?LCD12864
  +--> ?PR?_LCD12864_WRITEBYTE?LCD12864

?PR?_SETLINE?LCD12864                       -----    -----
  +--> ?PR?_SENDCOMMANDTOLCD?LCD12864

?PR?_SETCOLUMN?LCD12864                     -----    -----
  +--> ?PR?_SENDCOMMANDTOLCD?LCD12864

?PR?_LCD12864_WRITEBYTE?LCD12864            0BECH    0001H
  +--> ?PR?_DELAY_US?SYSTEM

?PR?_SETSTARTLINE?LCD12864                  -----    -----
  +--> ?PR?_SENDCOMMANDTOLCD?LCD12864

?PR?IC_24CXX_CHECK?24C02                    -----    -----
  +--> ?PR?_IC_24CXX_READ_BYTE?24C02
  +--> ?PR?_IC_24CXX_WRITE_BYTE?24C02

?PR?_IC_24CXX_READ_BYTE?24C02               0BE6H    0003H
  +--> ?PR?IIC_START?IIC
  +--> ?PR?_IIC_SEND_BYTE?IIC
  +--> ?PR?IIC_WAIT_ACK?IIC
BL51 BANKED LINKER/LOCATER V6.22                                                      06/29/2022  17:51:34  PAGE 4


  +--> ?PR?_IIC_READ_BYTE?IIC
  +--> ?PR?IIC_STOP?IIC

?PR?IIC_START?IIC                           -----    -----
  +--> ?PR?SDA_OUT?IIC
  +--> ?PR?_DELAY_US?SYSTEM

?PR?_IIC_SEND_BYTE?IIC                      0BE9H    0002H
  +--> ?PR?SDA_OUT?IIC
  +--> ?PR?_DELAY_US?SYSTEM

?PR?IIC_WAIT_ACK?IIC                        0BE9H    0001H
  +--> ?PR?SDA_IN?IIC
  +--> ?PR?_DELAY_US?SYSTEM
  +--> ?PR?IIC_STOP?IIC

?PR?IIC_STOP?IIC                            -----    -----
  +--> ?PR?SDA_OUT?IIC
  +--> ?PR?_DELAY_US?SYSTEM

?PR?_IIC_READ_BYTE?IIC                      0BE9H    0003H
  +--> ?PR?SDA_IN?IIC
  +--> ?PR?_DELAY_US?SYSTEM
  +--> ?PR?IIC_NACK?IIC
  +--> ?PR?IIC_ACK?IIC

?PR?IIC_NACK?IIC                            -----    -----
  +--> ?PR?SDA_OUT?IIC
  +--> ?PR?_DELAY_US?SYSTEM

?PR?IIC_ACK?IIC                             -----    -----
  +--> ?PR?SDA_OUT?IIC
  +--> ?PR?_DELAY_US?SYSTEM

?PR?_IC_24CXX_WRITE_BYTE?24C02              0BE6H    0003H
  +--> ?PR?IIC_START?IIC
  +--> ?PR?_IIC_SEND_BYTE?IIC
  +--> ?PR?IIC_WAIT_ACK?IIC
  +--> ?PR?IIC_STOP?IIC
  +--> ?PR?_DELAY_MS?SYSTEM

?PR?_SHOW_NUM?LCD12864                      0BDFH    0007H
  +--> ?PR?_DISPLAYEN?LCD12864

?PR?_DISPLAYEN?LCD12864                     0BE6H    0006H
  +--> ?PR?_SELECTSCREEN?LCD12864
  +--> ?PR?_SETLINE?LCD12864
  +--> ?PR?_SETCOLUMN?LCD12864
  +--> ?PR?_LCD12864_WRITEBYTE?LCD12864

?PR?KEY_SCAN?KEY                            0BDFH    0001H
  +--> ?PR?_DELAY_MS?SYSTEM

?PR?_IC_24CXX_WRITE?24C02                   0BDFH    0007H
  +--> ?PR?_IC_24CXX_WRITE_BYTE?24C02

?PR?_IC_24CXX_READ?24C02                    0BDFH    0007H
BL51 BANKED LINKER/LOCATER V6.22                                                      06/29/2022  17:51:34  PAGE 5


  +--> ?PR?_IC_24CXX_READ_BYTE?24C02



SYMBOL TABLE OF MODULE:  .\Objects\TEST (MAIN)

  VALUE           TYPE          NAME
  ----------------------------------

  -------         MODULE        MAIN
  C:0000H         SYMBOL        _ICE_DUMMY_
  D:0080H         PUBLIC        P0
  D:0090H         PUBLIC        P1
  D:00A0H         PUBLIC        P2
  D:00B0H         PUBLIC        P3
  D:00C0H         PUBLIC        P4
  X:0BEDH         PUBLIC        TEXT_Buffer
  D:00C8H         PUBLIC        P5
  D:00E8H         PUBLIC        P6
  D:00F8H         PUBLIC        P7
  D:00A8H         PUBLIC        IE
  D:00B8H         PUBLIC        IP
  D:00D8H         PUBLIC        CCON
  C:0BF1H         PUBLIC        main
  D:0098H         PUBLIC        SCON
  D:0088H         PUBLIC        TCON
  D:00D0H         PUBLIC        PSW
  -------         PROC          MAIN
  -------         DO            
  X:0BD0H         SYMBOL        key
  X:0BD1H         SYMBOL        datatemp
  -------         ENDDO         
  C:0BF1H         LINE#         44
  C:0BF1H         LINE#         45
  C:0BF1H         LINE#         46
  C:0BF6H         LINE#         48
  C:0BF9H         LINE#         49
  C:0BFCH         LINE#         50
  C:0BFFH         LINE#         51
  C:0C02H         LINE#         52
  C:0C02H         LINE#         53
  C:0C02H         LINE#         54
  C:0C08H         LINE#         55
  C:0C08H         LINE#         56
  C:0C0DH         LINE#         57
  C:0C1AH         LINE#         58
  C:0C27H         LINE#         59
  C:0C2EH         LINE#         60
  C:0C3BH         LINE#         61
  C:0C48H         LINE#         62
  C:0C4FH         LINE#         63
  C:0C51H         LINE#         64
  C:0C5DH         LINE#         66
  C:0C65H         LINE#         67
  C:0C6FH         LINE#         68
  C:0C6FH         LINE#         69
  C:0C6FH         LINE#         70
BL51 BANKED LINKER/LOCATER V6.22                                                      06/29/2022  17:51:34  PAGE 6


  C:0C7CH         LINE#         71
  C:0C91H         LINE#         72
  C:0C9EH         LINE#         73
  C:0CA4H         LINE#         74
  C:0CA4H         LINE#         75
  C:0CA4H         LINE#         76
  C:0CA6H         LINE#         77
  C:0CA6H         LINE#         78
  C:0CB3H         LINE#         79
  C:0CC8H         LINE#         80
  C:0CCFH         LINE#         81
  C:0CDCH         LINE#         82
  C:0CE9H         LINE#         83
  C:0CF0H         LINE#         84
  C:0CF7H         LINE#         85
  C:0CF7H         LINE#         86
  C:0CF7H         LINE#         87
  C:0CF7H         LINE#         88
  C:0CF7H         LINE#         89
  C:0CFCH         LINE#         90
  -------         ENDPROC       MAIN
  -------         ENDMOD        MAIN

  -------         MODULE        SYSTEM
  C:0000H         SYMBOL        _ICE_DUMMY_
  D:0092H         PUBLIC        P1M0
  D:0093H         PUBLIC        P0M1
  C:11E9H         PUBLIC        System_Init
  D:0096H         PUBLIC        P2M0
  D:0091H         PUBLIC        P1M1
  D:0080H         PUBLIC        P0
  D:00B2H         PUBLIC        P3M0
  D:0095H         PUBLIC        P2M1
  D:0090H         PUBLIC        P1
  D:00B4H         PUBLIC        P4M0
  D:00B1H         PUBLIC        P3M1
  D:00A0H         PUBLIC        P2
  D:00CAH         PUBLIC        P5M0
  D:00B3H         PUBLIC        P4M1
  D:00B0H         PUBLIC        P3
  D:00CCH         PUBLIC        P6M0
  D:00C9H         PUBLIC        P5M1
  D:00C0H         PUBLIC        P4
  D:00E2H         PUBLIC        P7M0
  D:00CBH         PUBLIC        P6M1
  D:00C8H         PUBLIC        P5
  D:00E1H         PUBLIC        P7M1
  D:00E8H         PUBLIC        P6
  D:00F8H         PUBLIC        P7
  D:00BAH         PUBLIC        P_SW2
  D:00A8H         PUBLIC        IE
  D:00B8H         PUBLIC        IP
  D:00D8H         PUBLIC        CCON
  C:1656H         PUBLIC        _Delay_ms
  D:0098H         PUBLIC        SCON
  D:0088H         PUBLIC        TCON
  C:16EBH         PUBLIC        _Delay_us
BL51 BANKED LINKER/LOCATER V6.22                                                      06/29/2022  17:51:34  PAGE 7


  D:00FFH         PUBLIC        RSTCFG
  D:00D0H         PUBLIC        PSW
  D:0094H         PUBLIC        P0M0
  -------         PROC          _DELAY_MS
  D:0006H         SYMBOL        ms
  -------         DO            
  D:0004H         SYMBOL        i
  -------         ENDDO         
  C:1656H         LINE#         14
  C:1656H         LINE#         15
  C:1656H         LINE#         17
  C:1660H         LINE#         18
  C:1660H         LINE#         19
  C:1673H         LINE#         20
  C:1673H         LINE#         21
  -------         ENDPROC       _DELAY_MS
  -------         PROC          _DELAY_US
  D:0006H         SYMBOL        us
  -------         DO            
  D:0005H         SYMBOL        i
  -------         ENDDO         
  C:16EBH         LINE#         36
  C:16EBH         LINE#         37
  C:16EBH         LINE#         39
  C:16F5H         LINE#         40
  C:16F5H         LINE#         41
  C:16F6H         LINE#         42
  C:16F7H         LINE#         43
  C:16F9H         LINE#         44
  C:16FFH         LINE#         46
  -------         ENDPROC       _DELAY_US
  -------         PROC          SYSTEM_INIT
  C:11E9H         LINE#         56
  C:11E9H         LINE#         57
  C:11E9H         LINE#         58
  C:11F0H         LINE#         59
  C:11F3H         LINE#         60
  C:11FAH         LINE#         61
  C:1201H         LINE#         62
  C:1207H         LINE#         63
  C:120BH         LINE#         64
  C:120EH         LINE#         67
  C:1211H         LINE#         71
  C:1216H         LINE#         73
  C:121BH         LINE#         75
  C:1220H         LINE#         77
  C:1225H         LINE#         79
  C:122AH         LINE#         81
  C:122FH         LINE#         83
  C:1234H         LINE#         87
  C:123AH         LINE#         89
  C:1240H         LINE#         90
  -------         ENDPROC       SYSTEM_INIT
  -------         ENDMOD        SYSTEM

  -------         MODULE        KEY
  C:0000H         SYMBOL        _ICE_DUMMY_
BL51 BANKED LINKER/LOCATER V6.22                                                      06/29/2022  17:51:34  PAGE 8


  D:0080H         PUBLIC        P0
  D:00B2H         PUBLIC        P3M0
  D:0090H         PUBLIC        P1
  D:00B1H         PUBLIC        P3M1
  D:00A0H         PUBLIC        P2
  D:00B0H         PUBLIC        P3
  D:00C0H         PUBLIC        P4
  D:00C8H         PUBLIC        P5
  D:00E8H         PUBLIC        P6
  D:00F8H         PUBLIC        P7
  D:00A8H         PUBLIC        IE
  C:1565H         PUBLIC        Key_Scan
  D:00B8H         PUBLIC        IP
  B:00B0H.2       PUBLIC        KEY0
  B:00B0H.3       PUBLIC        KEY1
  D:00D8H         PUBLIC        CCON
  C:1729H         PUBLIC        Key_Configure
  D:0098H         PUBLIC        SCON
  D:0088H         PUBLIC        TCON
  D:00D0H         PUBLIC        PSW
  -------         PROC          KEY_CONFIGURE
  C:1729H         LINE#         10
  C:1729H         LINE#         11
  C:1729H         LINE#         12
  C:172FH         LINE#         13
  -------         ENDPROC       KEY_CONFIGURE
  -------         PROC          KEY_SCAN
  -------         DO            
  X:0BDFH         SYMBOL        key_value
  -------         ENDDO         
  C:1565H         LINE#         22
  C:1565H         LINE#         23
  C:1565H         LINE#         24
  C:156BH         LINE#         26
  C:1571H         LINE#         27
  C:1571H         LINE#         29
  C:1578H         LINE#         31
  C:157EH         LINE#         32
  C:157EH         LINE#         34
  C:1581H         LINE#         35
  C:1589H         LINE#         37
  C:158CH         LINE#         38
  C:1592H         LINE#         39
  C:1592H         LINE#         41
  C:1598H         LINE#         42
  C:1598H         LINE#         43
  C:159AH         LINE#         44
  -------         ENDPROC       KEY_SCAN
  -------         ENDMOD        KEY

  -------         MODULE        LCD12864
  C:0000H         SYMBOL        _ICE_DUMMY_
  D:0093H         PUBLIC        P0M1
  D:0096H         PUBLIC        P2M0
  D:0080H         PUBLIC        P0
  D:0095H         PUBLIC        P2M1
  D:0090H         PUBLIC        P1
BL51 BANKED LINKER/LOCATER V6.22                                                      06/29/2022  17:51:34  PAGE 9


  C:14B0H         PUBLIC        _SetLCD
  D:00A0H         PUBLIC        P2
  C:1188H         PUBLIC        LCD12864_Software_Init
  D:00B0H         PUBLIC        P3
  D:00C0H         PUBLIC        P4
  D:00C8H         PUBLIC        P5
  D:00E8H         PUBLIC        P6
  D:00F8H         PUBLIC        P7
  C:173EH         PUBLIC        _SetOnOff
  D:00A8H         PUBLIC        IE
  X:0000H         PUBLIC        ascll
  D:00B8H         PUBLIC        IP
  C:1720H         PUBLIC        _SetColumn
  D:00D8H         PUBLIC        CCON
  C:1700H         PUBLIC        LCD_ALL_DIR_OUT
  X:0800H         PUBLIC        Ezk
  X:0900H         PUBLIC        Hzk
  C:0E86H         PUBLIC        _Displayen
  D:0098H         PUBLIC        SCON
  C:0F24H         PUBLIC        _Show_Num
  D:0088H         PUBLIC        TCON
  C:1730H         PUBLIC        _SetLine
  C:160CH         PUBLIC        _Show_Hz
  C:15D1H         PUBLIC        _SelectScreen
  C:1737H         PUBLIC        _SetStartLine
  C:1121H         PUBLIC        _ClearScreen
  C:0CFFH         PUBLIC        _Display
  C:13E4H         PUBLIC        _LCD12864_WriteByte
  C:14EFH         PUBLIC        lcd_rol
  C:142FH         PUBLIC        _SendCommandToLCD
  D:00D0H         PUBLIC        PSW
  D:0094H         PUBLIC        P0M0
  -------         PROC          _SENDCOMMANDTOLCD
  X:0BECH         SYMBOL        com
  C:142FH         LINE#         11
  C:1434H         LINE#         12
  C:1434H         LINE#         13
  C:143BH         LINE#         14
  C:143EH         LINE#         15
  C:1445H         LINE#         16
  C:1448H         LINE#         17
  C:144BH         LINE#         18
  C:1451H         LINE#         19
  C:1458H         LINE#         20
  C:145BH         LINE#         21
  C:1462H         LINE#         22
  C:1465H         LINE#         23
  C:146CH         LINE#         24
  C:146FH         LINE#         25
  -------         ENDPROC       _SENDCOMMANDTOLCD
  -------         PROC          _SETLCD
  X:0C0BH         SYMBOL        page
  X:0C0CH         SYMBOL        startline
  X:0C0DH         SYMBOL        column
  C:14B0H         LINE#         33
  C:14BBH         LINE#         34
  C:14BBH         LINE#         35
BL51 BANKED LINKER/LOCATER V6.22                                                      06/29/2022  17:51:34  PAGE 10


  C:14C2H         LINE#         36
  C:14CAH         LINE#         37
  C:14D1H         LINE#         38
  C:14D9H         LINE#         39
  C:14E0H         LINE#         40
  C:14E8H         LINE#         41
  -------         ENDPROC       _SETLCD
  -------         PROC          _SETLINE
  D:0007H         SYMBOL        page
  C:1730H         LINE#         44
  C:1730H         LINE#         45
  C:1730H         LINE#         46
  C:1734H         LINE#         47
  -------         ENDPROC       _SETLINE
  -------         PROC          _SETSTARTLINE
  D:0007H         SYMBOL        startline
  C:1737H         LINE#         51
  C:1737H         LINE#         52
  C:1737H         LINE#         53
  C:173BH         LINE#         54
  -------         ENDPROC       _SETSTARTLINE
  -------         PROC          _SETCOLUMN
  D:0007H         SYMBOL        column
  C:1720H         LINE#         58
  C:1720H         LINE#         59
  C:1720H         LINE#         60
  C:1723H         LINE#         61
  C:1726H         LINE#         62
  -------         ENDPROC       _SETCOLUMN
  -------         PROC          _SETONOFF
  D:0007H         SYMBOL        onoff
  C:173EH         LINE#         67
  C:173EH         LINE#         68
  C:173EH         LINE#         69
  C:1742H         LINE#         70
  -------         ENDPROC       _SETONOFF
  C:13E0H         SYMBOL        L?0053
  -------         PROC          L?0052
  -------         ENDPROC       L?0052
  C:13E0H         SYMBOL        L?0053
  -------         PROC          _LCD12864_WRITEBYTE
  X:0BECH         SYMBOL        dat
  C:13E4H         LINE#         79
  C:13E9H         LINE#         80
  C:13E9H         LINE#         81
  C:13F0H         LINE#         82
  C:13F3H         LINE#         83
  C:13FAH         LINE#         84
  C:13FDH         LINE#         85
  C:1404H         LINE#         86
  C:1407H         LINE#         87
  C:140AH         LINE#         88
  C:1410H         LINE#         89
  C:1417H         LINE#         90
  C:141AH         LINE#         91
  C:1421H         LINE#         92
  C:1424H         LINE#         93
BL51 BANKED LINKER/LOCATER V6.22                                                      06/29/2022  17:51:34  PAGE 11


  C:142BH         LINE#         94
  C:142EH         LINE#         95
  -------         ENDPROC       _LCD12864_WRITEBYTE
  -------         PROC          _SELECTSCREEN
  D:0007H         SYMBOL        screen
  C:15D1H         LINE#         105
  C:15D1H         LINE#         106
  C:15D1H         LINE#         107
  C:15DCH         LINE#         108
  C:15DCH         LINE#         109
  C:15DCH         LINE#         110
  C:15DFH         LINE#         111
  C:15DFH         LINE#         112
  C:15DFH         LINE#         113
  C:15DFH         LINE#         114
  C:15E1H         LINE#         116
  C:15E1H         LINE#         117
  C:15E4H         LINE#         118
  C:15EBH         LINE#         119
  C:15EEH         LINE#         120
  C:15EEH         LINE#         121
  C:15F0H         LINE#         123
  C:15F0H         LINE#         124
  C:15F3H         LINE#         125
  C:15FAH         LINE#         126
  C:15FDH         LINE#         127
  C:1604H         LINE#         128
  C:1604H         LINE#         130
  C:1604H         LINE#         131
  C:1604H         LINE#         132
  C:1604H         LINE#         133
  -------         ENDPROC       _SELECTSCREEN
  -------         PROC          _CLEARSCREEN
  X:0BDFH         SYMBOL        screen
  C:1121H         LINE#         141
  C:1126H         LINE#         142
  C:1126H         LINE#         144
  C:1132H         LINE#         145
  C:1132H         LINE#         146
  C:1139H         LINE#         147
  C:113EH         LINE#         148
  C:1143H         LINE#         149
  C:114FH         LINE#         150
  C:115BH         LINE#         151
  C:1167H         LINE#         152
  C:1173H         LINE#         153
  C:117FH         LINE#         154
  C:1187H         LINE#         155
  -------         ENDPROC       _CLEARSCREEN
  -------         PROC          LCD_ROL
  -------         DO            
  X:0C0EH         SYMBOL        i
  -------         ENDDO         
  C:14EFH         LINE#         163
  C:14EFH         LINE#         164
  C:14EFH         LINE#         167
  C:14FEH         LINE#         168
BL51 BANKED LINKER/LOCATER V6.22                                                      06/29/2022  17:51:34  PAGE 12


  C:14FEH         LINE#         169
  C:1501H         LINE#         170
  C:1508H         LINE#         171
  C:150BH         LINE#         172
  C:150EH         LINE#         173
  C:151BH         LINE#         174
  C:151EH         LINE#         175
  C:1525H         LINE#         176
  C:152DH         LINE#         177
  -------         ENDPROC       LCD_ROL
  -------         PROC          LCD12864_SOFTWARE_INIT
  C:1188H         LINE#         185
  C:1188H         LINE#         186
  C:1188H         LINE#         187
  C:118BH         LINE#         188
  C:1192H         LINE#         189
  C:1197H         LINE#         190
  C:119CH         LINE#         191
  C:11A3H         LINE#         192
  C:11A8H         LINE#         193
  C:11ADH         LINE#         194
  C:11B4H         LINE#         195
  C:11B9H         LINE#         196
  C:11BEH         LINE#         197
  C:11C5H         LINE#         198
  C:11CAH         LINE#         199
  C:11D1H         LINE#         200
  C:11D6H         LINE#         201
  C:11DDH         LINE#         202
  C:11E2H         LINE#         203
  -------         ENDPROC       LCD12864_SOFTWARE_INIT
  -------         PROC          L?0051
  -------         ENDPROC       L?0051
  -------         PROC          _SHOW_HZ
  D:0006H         SYMBOL        x
  D:0005H         SYMBOL        y
  D:0004H         SYMBOL        hz
  -------         DO            
  D:0007H         SYMBOL        l_r
  -------         ENDDO         
  C:160CH         LINE#         212
  C:1610H         LINE#         213
  C:1610H         LINE#         214
  C:1612H         LINE#         216
  C:1618H         LINE#         217
  C:161BH         LINE#         219
  C:161DH         LINE#         221
  -------         ENDPROC       _SHOW_HZ
  -------         PROC          _SHOW_NUM
  X:0BDFH         SYMBOL        x
  X:0BE0H         SYMBOL        y
  X:0BE1H         SYMBOL        str
  -------         DO            
  X:0BE4H         SYMBOL        l_r
  X:0BE5H         SYMBOL        i
  -------         ENDDO         
  C:0F24H         LINE#         230
BL51 BANKED LINKER/LOCATER V6.22                                                      06/29/2022  17:51:34  PAGE 13


  C:0F35H         LINE#         231
  C:0F35H         LINE#         232
  C:0F3AH         LINE#         234
  C:0F4AH         LINE#         235
  C:0F4AH         LINE#         236
  C:0F53H         LINE#         237
  C:0F53H         LINE#         238
  C:0F55H         LINE#         239
  C:0F5CH         LINE#         240
  C:0F5CH         LINE#         242
  C:0F6EH         LINE#         243
  C:0F71H         LINE#         245
  C:0FA7H         LINE#         246
  C:0FADH         LINE#         247
  C:0FAFH         LINE#         248
  -------         ENDPROC       _SHOW_NUM
  -------         PROC          _DISPLAY
  X:0BE0H         SYMBOL        ss
  X:0BE1H         SYMBOL        page
  X:0BE2H         SYMBOL        column
  X:0BE3H         SYMBOL        number
  -------         DO            
  X:0BE4H         SYMBOL        i
  -------         ENDDO         
  C:0CFFH         LINE#         256
  C:0D0AH         LINE#         257
  C:0D0AH         LINE#         259
  C:0D0FH         LINE#         260
  C:0D17H         LINE#         261
  C:0D1EH         LINE#         262
  C:0D26H         LINE#         263
  C:0D2EH         LINE#         265
  C:0D47H         LINE#         266
  C:0D47H         LINE#         267
  C:0D64H         LINE#         268
  C:0D74H         LINE#         270
  C:0D7DH         LINE#         271
  C:0D85H         LINE#         273
  C:0D9EH         LINE#         274
  C:0D9EH         LINE#         275
  C:0DBBH         LINE#         276
  C:0DCBH         LINE#         277
  -------         ENDPROC       _DISPLAY
  -------         PROC          _DISPLAYEN
  D:0007H         SYMBOL        ss
  X:0BE7H         SYMBOL        page
  X:0BE8H         SYMBOL        column
  X:0BE9H         SYMBOL        num
  -------         DO            
  X:0BEAH         SYMBOL        i
  X:0BEBH         SYMBOL        number
  -------         ENDDO         
  C:0E86H         LINE#         285
  C:0E8EH         LINE#         286
  C:0E8EH         LINE#         288
  C:0E94H         LINE#         289
  C:0E97H         LINE#         290
BL51 BANKED LINKER/LOCATER V6.22                                                      06/29/2022  17:51:34  PAGE 14


  C:0E9EH         LINE#         291
  C:0EA6H         LINE#         292
  C:0EAEH         LINE#         294
  C:0EBDH         LINE#         295
  C:0EBDH         LINE#         296
  C:0ED8H         LINE#         297
  C:0EE0H         LINE#         299
  C:0EE9H         LINE#         300
  C:0EF1H         LINE#         302
  C:0F00H         LINE#         303
  C:0F00H         LINE#         304
  C:0F1BH         LINE#         305
  C:0F23H         LINE#         306
  -------         ENDPROC       _DISPLAYEN
  -------         PROC          LCD_ALL_DIR_OUT
  C:1700H         LINE#         314
  C:1700H         LINE#         315
  C:1700H         LINE#         316
  C:1706H         LINE#         317
  C:170CH         LINE#         318
  C:170FH         LINE#         319
  C:1712H         LINE#         320
  -------         ENDPROC       LCD_ALL_DIR_OUT
  -------         ENDMOD        LCD12864

  -------         MODULE        24C02
  C:0000H         SYMBOL        _ICE_DUMMY_
  C:1753H         PUBLIC        IC_24Cxx_Init
  D:0080H         PUBLIC        P0
  D:0090H         PUBLIC        P1
  D:00A0H         PUBLIC        P2
  D:00B0H         PUBLIC        P3
  D:00C0H         PUBLIC        P4
  D:00C8H         PUBLIC        P5
  D:00E8H         PUBLIC        P6
  D:00F8H         PUBLIC        P7
  D:00A8H         PUBLIC        IE
  D:00B8H         PUBLIC        IP
  C:10B0H         PUBLIC        _IC_24Cxx_ReadLenByte
  D:00D8H         PUBLIC        CCON
  D:0098H         PUBLIC        SCON
  D:0088H         PUBLIC        TCON
  C:1241H         PUBLIC        _IC_24Cxx_WaitLenByte
  C:162EH         PUBLIC        IC_24Cxx_Check
  C:1470H         PUBLIC        _IC_24Cxx_Read_Byte
  C:1390H         PUBLIC        _IC_24Cxx_Read
  C:152EH         PUBLIC        _IC_24Cxx_Write_Byte
  C:12ECH         PUBLIC        _IC_24Cxx_Write
  D:00D0H         PUBLIC        PSW
  -------         PROC          IC_24CXX_INIT
  C:1753H         LINE#         7
  C:1753H         LINE#         8
  C:1753H         LINE#         9
  -------         ENDPROC       IC_24CXX_INIT
  -------         PROC          _IC_24CXX_READ_BYTE
  X:0BE6H         SYMBOL        ReadAddr
  -------         DO            
BL51 BANKED LINKER/LOCATER V6.22                                                      06/29/2022  17:51:34  PAGE 15


  X:0BE8H         SYMBOL        temp
  -------         ENDDO         
  C:1470H         LINE#         16
  C:1478H         LINE#         17
  C:1478H         LINE#         18
  C:147BH         LINE#         19
  C:147EH         LINE#         20
  C:1483H         LINE#         21
  C:1486H         LINE#         22
  C:148FH         LINE#         23
  C:1492H         LINE#         24
  C:1495H         LINE#         25
  C:149AH         LINE#         26
  C:149DH         LINE#         27
  C:14A7H         LINE#         28
  C:14AAH         LINE#         29
  C:14AFH         LINE#         30
  -------         ENDPROC       _IC_24CXX_READ_BYTE
  -------         PROC          _IC_24CXX_WRITE_BYTE
  X:0BE6H         SYMBOL        WriteAddr
  X:0BE8H         SYMBOL        wdata
  C:152EH         LINE#         37
  C:1539H         LINE#         38
  C:1539H         LINE#         39
  C:153CH         LINE#         40
  C:1541H         LINE#         41
  C:1544H         LINE#         42
  C:154DH         LINE#         43
  C:1550H         LINE#         44
  C:1558H         LINE#         45
  C:155BH         LINE#         46
  C:155EH         LINE#         47
  -------         ENDPROC       _IC_24CXX_WRITE_BYTE
  -------         PROC          _IC_24CXX_WAITLENBYTE
  X:0BFBH         SYMBOL        WriteAddr
  X:0BFDH         SYMBOL        wdata
  X:0C01H         SYMBOL        length
  -------         DO            
  X:0C02H         SYMBOL        i
  -------         ENDDO         
  C:1241H         LINE#         55
  C:1249H         LINE#         56
  C:1249H         LINE#         57
  C:124EH         LINE#         58
  C:125BH         LINE#         59
  C:125BH         LINE#         60
  C:128FH         LINE#         61
  C:1297H         LINE#         62
  -------         ENDPROC       _IC_24CXX_WAITLENBYTE
  -------         PROC          _IC_24CXX_READLENBYTE
  X:0C03H         SYMBOL        ReadAddr
  X:0C05H         SYMBOL        length
  -------         DO            
  X:0C06H         SYMBOL        i
  X:0C07H         SYMBOL        temp
  -------         ENDDO         
  C:10B0H         LINE#         68
BL51 BANKED LINKER/LOCATER V6.22                                                      06/29/2022  17:51:34  PAGE 16


  C:10BBH         LINE#         69
  C:10BBH         LINE#         70
  C:10BEH         LINE#         71
  C:10C6H         LINE#         72
  C:10D7H         LINE#         73
  C:10D7H         LINE#         74
  C:10EEH         LINE#         75
  C:110AH         LINE#         76
  C:1112H         LINE#         77
  C:1120H         LINE#         78
  -------         ENDPROC       _IC_24CXX_READLENBYTE
  -------         PROC          _IC_24CXX_READ
  X:0BDFH         SYMBOL        ReadAddr
  X:0BE1H         SYMBOL        Buffer
  X:0BE4H         SYMBOL        Buf_len
  C:1390H         LINE#         85
  C:13A1H         LINE#         86
  C:13A1H         LINE#         87
  C:13ABH         LINE#         88
  C:13ABH         LINE#         89
  C:13CFH         LINE#         90
  C:13DDH         LINE#         91
  C:13DFH         LINE#         92
  -------         ENDPROC       _IC_24CXX_READ
  -------         PROC          _IC_24CXX_WRITE
  X:0BDFH         SYMBOL        WriteAddr
  X:0BE1H         SYMBOL        Buffer
  X:0BE4H         SYMBOL        Buf_len
  C:12ECH         LINE#         99
  C:12FDH         LINE#         100
  C:12FDH         LINE#         101
  C:130BH         LINE#         102
  C:130BH         LINE#         103
  C:1323H         LINE#         104
  C:1331H         LINE#         105
  C:133BH         LINE#         106
  C:133DH         LINE#         107
  -------         ENDPROC       _IC_24CXX_WRITE
  -------         PROC          IC_24CXX_CHECK
  -------         DO            
  D:0007H         SYMBOL        temp
  -------         ENDDO         
  C:162EH         LINE#         113
  C:162EH         LINE#         114
  C:162EH         LINE#         115
  C:162FH         LINE#         116
  C:1635H         LINE#         117
  C:1639H         LINE#         118
  C:163CH         LINE#         120
  C:163CH         LINE#         121
  C:1645H         LINE#         122
  C:164CH         LINE#         123
  C:1650H         LINE#         124
  C:1653H         LINE#         125
  C:1653H         LINE#         126
  C:1655H         LINE#         127
  -------         ENDPROC       IC_24CXX_CHECK
BL51 BANKED LINKER/LOCATER V6.22                                                      06/29/2022  17:51:34  PAGE 17


  -------         ENDMOD        24C02

  -------         MODULE        IIC
  C:0000H         SYMBOL        _ICE_DUMMY_
  D:0096H         PUBLIC        P2M0
  D:0080H         PUBLIC        P0
  D:0095H         PUBLIC        P2M1
  D:0090H         PUBLIC        P1
  D:00A0H         PUBLIC        P2
  D:00B0H         PUBLIC        P3
  D:00C0H         PUBLIC        P4
  D:00C8H         PUBLIC        P5
  D:00E8H         PUBLIC        P6
  D:00F8H         PUBLIC        P7
  D:00A8H         PUBLIC        IE
  C:16B0H         PUBLIC        IIC_NAck
  D:00B8H         PUBLIC        IP
  D:00D8H         PUBLIC        CCON
  C:133EH         PUBLIC        _IIC_Read_Byte
  D:0098H         PUBLIC        SCON
  D:0088H         PUBLIC        TCON
  C:1298H         PUBLIC        _IIC_Send_Byte
  B:00A0H.7       PUBLIC        P27
  C:159BH         PUBLIC        IIC_Wait_Ack
  C:1692H         PUBLIC        IIC_Ack
  C:1674H         PUBLIC        IIC_Start
  C:16CEH         PUBLIC        IIC_Stop
  C:1713H         PUBLIC        IIC_Hardware_Init
  C:1745H         PUBLIC        SDA_In
  C:174CH         PUBLIC        SDA_Out
  D:00D0H         PUBLIC        PSW
  -------         PROC          IIC_HARDWARE_INIT
  C:1713H         LINE#         10
  C:1713H         LINE#         11
  C:1713H         LINE#         13
  C:1719H         LINE#         15
  C:171CH         LINE#         16
  C:171FH         LINE#         17
  -------         ENDPROC       IIC_HARDWARE_INIT
  -------         PROC          SDA_IN
  C:1745H         LINE#         25
  C:1745H         LINE#         26
  C:1745H         LINE#         27
  C:174BH         LINE#         28
  -------         ENDPROC       SDA_IN
  -------         PROC          SDA_OUT
  C:174CH         LINE#         36
  C:174CH         LINE#         37
  C:174CH         LINE#         38
  C:1752H         LINE#         39
  -------         ENDPROC       SDA_OUT
  -------         PROC          IIC_START
  C:1674H         LINE#         47
  C:1674H         LINE#         48
  C:1674H         LINE#         49
  C:1677H         LINE#         50
  C:167AH         LINE#         51
BL51 BANKED LINKER/LOCATER V6.22                                                      06/29/2022  17:51:34  PAGE 18


  C:167DH         LINE#         52
  C:1684H         LINE#         53
  C:1687H         LINE#         54
  C:168EH         LINE#         55
  C:1691H         LINE#         56
  -------         ENDPROC       IIC_START
  -------         PROC          IIC_STOP
  C:16CEH         LINE#         64
  C:16CEH         LINE#         65
  C:16CEH         LINE#         66
  C:16D1H         LINE#         67
  C:16D4H         LINE#         68
  C:16D7H         LINE#         69
  C:16DEH         LINE#         70
  C:16E1H         LINE#         71
  C:16E4H         LINE#         72
  -------         ENDPROC       IIC_STOP
  -------         PROC          IIC_WAIT_ACK
  -------         DO            
  X:0BE9H         SYMBOL        ucErrTime
  -------         ENDDO         
  C:159BH         LINE#         80
  C:159BH         LINE#         81
  C:159BH         LINE#         82
  C:15A0H         LINE#         83
  C:15A3H         LINE#         84
  C:15A6H         LINE#         85
  C:15ACH         LINE#         86
  C:15AFH         LINE#         87
  C:15B6H         LINE#         89
  C:15B9H         LINE#         90
  C:15B9H         LINE#         91
  C:15BFH         LINE#         93
  C:15C5H         LINE#         94
  C:15C5H         LINE#         95
  C:15C8H         LINE#         96
  C:15CBH         LINE#         97
  C:15CBH         LINE#         98
  C:15CBH         LINE#         100
  C:15CEH         LINE#         101
  C:15D0H         LINE#         102
  -------         ENDPROC       IIC_WAIT_ACK
  -------         PROC          IIC_ACK
  C:1692H         LINE#         105
  C:1692H         LINE#         106
  C:1692H         LINE#         107
  C:1695H         LINE#         108
  C:1698H         LINE#         109
  C:169BH         LINE#         110
  C:16A2H         LINE#         111
  C:16A5H         LINE#         112
  C:16ACH         LINE#         113
  C:16AFH         LINE#         114
  -------         ENDPROC       IIC_ACK
  -------         PROC          IIC_NACK
  C:16B0H         LINE#         117
  C:16B0H         LINE#         118
BL51 BANKED LINKER/LOCATER V6.22                                                      06/29/2022  17:51:34  PAGE 19


  C:16B0H         LINE#         119
  C:16B3H         LINE#         120
  C:16B6H         LINE#         121
  C:16B9H         LINE#         122
  C:16C0H         LINE#         123
  C:16C3H         LINE#         124
  C:16CAH         LINE#         125
  C:16CDH         LINE#         126
  -------         ENDPROC       IIC_NACK
  -------         PROC          _IIC_SEND_BYTE
  X:0BE9H         SYMBOL        txd
  -------         DO            
  X:0BEAH         SYMBOL        t
  -------         ENDDO         
  C:1298H         LINE#         133
  C:129DH         LINE#         134
  C:129DH         LINE#         136
  C:12A0H         LINE#         137
  C:12A3H         LINE#         139
  C:12A6H         LINE#         140
  C:12A6H         LINE#         141
  C:12BDH         LINE#         142
  C:12C4H         LINE#         143
  C:12CBH         LINE#         144
  C:12CEH         LINE#         145
  C:12D5H         LINE#         146
  C:12D8H         LINE#         147
  C:12DFH         LINE#         148
  C:12EBH         LINE#         149
  -------         ENDPROC       _IIC_SEND_BYTE
  -------         PROC          _IIC_READ_BYTE
  X:0BE9H         SYMBOL        ack
  -------         DO            
  X:0BEAH         SYMBOL        i
  X:0BEBH         SYMBOL        receive
  -------         ENDDO         
  C:133EH         LINE#         152
  C:1343H         LINE#         153
  C:1343H         LINE#         154
  C:1348H         LINE#         155
  C:134BH         LINE#         157
  C:134FH         LINE#         158
  C:134FH         LINE#         159
  C:1352H         LINE#         160
  C:1359H         LINE#         161
  C:135CH         LINE#         162
  C:1363H         LINE#         164
  C:1369H         LINE#         166
  C:1370H         LINE#         167
  C:137CH         LINE#         169
  C:1382H         LINE#         170
  C:1387H         LINE#         172
  C:138AH         LINE#         174
  C:138FH         LINE#         175
  -------         ENDPROC       _IIC_READ_BYTE
  -------         ENDMOD        IIC

BL51 BANKED LINKER/LOCATER V6.22                                                      06/29/2022  17:51:34  PAGE 20


  -------         MODULE        ?C?CLDPTR
  C:0DCCH         PUBLIC        ?C?CLDPTR
  -------         ENDMOD        ?C?CLDPTR

  -------         MODULE        ?C?CSTPTR
  C:0DE5H         PUBLIC        ?C?CSTPTR
  -------         ENDMOD        ?C?CSTPTR

  -------         MODULE        ?C?IILDX
  C:0DF7H         PUBLIC        ?C?IILDX
  -------         ENDMOD        ?C?IILDX

  -------         MODULE        ?C?ILDIX
  C:0E0DH         PUBLIC        ?C?ILDIX
  -------         ENDMOD        ?C?ILDIX

  -------         MODULE        ?C?ULSHR
  C:0E23H         PUBLIC        ?C?ULSHR
  -------         ENDMOD        ?C?ULSHR

  -------         MODULE        ?C?LSHL
  C:0E36H         PUBLIC        ?C?LSHL
  -------         ENDMOD        ?C?LSHL

  -------         MODULE        ?C?LSTXDATA
  C:0E49H         PUBLIC        ?C?LSTXDATA
  -------         ENDMOD        ?C?LSTXDATA

  -------         MODULE        ?C?LSTKXDATA
  C:0E55H         PUBLIC        ?C?LSTKXDATA
  -------         ENDMOD        ?C?LSTKXDATA

*** WARNING L16: UNCALLED SEGMENT, IGNORED FOR OVERLAY PROCESS
    SEGMENT: ?PR?_SETLCD?LCD12864

*** WARNING L16: UNCALLED SEGMENT, IGNORED FOR OVERLAY PROCESS
    SEGMENT: ?PR?LCD_ROL?LCD12864

*** WARNING L16: UNCALLED SEGMENT, IGNORED FOR OVERLAY PROCESS
    SEGMENT: ?PR?IC_24CXX_INIT?24C02

*** WARNING L16: UNCALLED SEGMENT, IGNORED FOR OVERLAY PROCESS
    SEGMENT: ?PR?_IC_24CXX_WAITLENBYTE?24C02

*** WARNING L16: UNCALLED SEGMENT, IGNORED FOR OVERLAY PROCESS
    SEGMENT: ?PR?_IC_24CXX_READLENBYTE?24C02

Program Size: data=9.0 xdata=3087 code=5974
LINK/LOCATE RUN COMPLETE.  5 WARNING(S),  0 ERROR(S)
